
vm8_chall:     file format elf64-x86-64


Disassembly of section .init:

0000000000001000 <.init>:
    1000:	48 83 ec 08          	sub    rsp,0x8
    1004:	48 8b 05 c5 2f 00 00 	mov    rax,QWORD PTR [rip+0x2fc5]        # 3fd0 <__cxa_finalize@plt+0x2f60>
    100b:	48 85 c0             	test   rax,rax
    100e:	74 02                	je     1012 <putc@plt-0x1e>
    1010:	ff d0                	call   rax
    1012:	48 83 c4 08          	add    rsp,0x8
    1016:	c3                   	ret    

Disassembly of section .plt:

0000000000001020 <putc@plt-0x10>:
    1020:	ff 35 ca 2f 00 00    	push   QWORD PTR [rip+0x2fca]        # 3ff0 <__cxa_finalize@plt+0x2f80>
    1026:	ff 25 cc 2f 00 00    	jmp    QWORD PTR [rip+0x2fcc]        # 3ff8 <__cxa_finalize@plt+0x2f88>
    102c:	0f 1f 40 00          	nop    DWORD PTR [rax+0x0]

0000000000001030 <putc@plt>:
    1030:	ff 25 ca 2f 00 00    	jmp    QWORD PTR [rip+0x2fca]        # 4000 <__cxa_finalize@plt+0x2f90>
    1036:	68 00 00 00 00       	push   0x0
    103b:	e9 e0 ff ff ff       	jmp    1020 <putc@plt-0x10>

0000000000001040 <fprintf@plt>:
    1040:	ff 25 c2 2f 00 00    	jmp    QWORD PTR [rip+0x2fc2]        # 4008 <__cxa_finalize@plt+0x2f98>
    1046:	68 01 00 00 00       	push   0x1
    104b:	e9 d0 ff ff ff       	jmp    1020 <putc@plt-0x10>

0000000000001050 <exit@plt>:
    1050:	ff 25 ba 2f 00 00    	jmp    QWORD PTR [rip+0x2fba]        # 4010 <__cxa_finalize@plt+0x2fa0>
    1056:	68 02 00 00 00       	push   0x2
    105b:	e9 c0 ff ff ff       	jmp    1020 <putc@plt-0x10>

0000000000001060 <fwrite@plt>:
    1060:	ff 25 b2 2f 00 00    	jmp    QWORD PTR [rip+0x2fb2]        # 4018 <__cxa_finalize@plt+0x2fa8>
    1066:	68 03 00 00 00       	push   0x3
    106b:	e9 b0 ff ff ff       	jmp    1020 <putc@plt-0x10>

Disassembly of section .plt.got:

0000000000001070 <__cxa_finalize@plt>:
    1070:	ff 25 6a 2f 00 00    	jmp    QWORD PTR [rip+0x2f6a]        # 3fe0 <__cxa_finalize@plt+0x2f70>
    1076:	66 90                	xchg   ax,ax

Disassembly of section .text:

0000000000001080 <.text>:
    1080:	bf 77 77 77 77       	mov    edi,0x77777777
    1085:	48 83 ec 08          	sub    rsp,0x8
    1089:	31 c0                	xor    eax,eax
    108b:	66 0f 6e cf          	movd   xmm1,edi
    108f:	48 8d 35 ea 2f 00 00 	lea    rsi,[rip+0x2fea]        # 4080 <stderr@GLIBC_2.2.5+0x20>
    1096:	48 8d 0d 03 10 00 00 	lea    rcx,[rip+0x1003]        # 20a0 <__cxa_finalize@plt+0x1030>
    109d:	66 0f 70 c9 00       	pshufd xmm1,xmm1,0x0
    10a2:	0f 1f 84 00 00 00 00 	nop    DWORD PTR [rax+rax*1+0x0]
    10a9:	00 
    10aa:	66 66 2e 0f 1f 84 00 	data16 cs nop WORD PTR [rax+rax*1+0x0]
    10b1:	00 00 00 00 
    10b5:	66 66 2e 0f 1f 84 00 	data16 cs nop WORD PTR [rax+rax*1+0x0]
    10bc:	00 00 00 00 
    10c0:	66 0f 6f 04 01       	movdqa xmm0,XMMWORD PTR [rcx+rax*1]
    10c5:	66 0f ef c1          	pxor   xmm0,xmm1
    10c9:	0f 29 04 06          	movaps XMMWORD PTR [rsi+rax*1],xmm0
    10cd:	48 83 c0 10          	add    rax,0x10
    10d1:	48 3d e0 00 00 00    	cmp    rax,0xe0
    10d7:	75 e7                	jne    10c0 <__cxa_finalize@plt+0x50>
    10d9:	0f 1f 80 00 00 00 00 	nop    DWORD PTR [rax+0x0]
    10e0:	0f b6 14 01          	movzx  edx,BYTE PTR [rcx+rax*1]
    10e4:	83 f2 77             	xor    edx,0x77
    10e7:	88 14 06             	mov    BYTE PTR [rsi+rax*1],dl
    10ea:	48 83 c0 01          	add    rax,0x1
    10ee:	48 3d ee 00 00 00    	cmp    rax,0xee
    10f4:	75 ea                	jne    10e0 <__cxa_finalize@plt+0x70>
    10f6:	31 ff                	xor    edi,edi
    10f8:	e8 63 01 00 00       	call   1260 <__cxa_finalize@plt+0x1f0>
    10fd:	31 c0                	xor    eax,eax
    10ff:	48 83 c4 08          	add    rsp,0x8
    1103:	c3                   	ret    
    1104:	66 2e 0f 1f 84 00 00 	cs nop WORD PTR [rax+rax*1+0x0]
    110b:	00 00 00 
    110e:	66 90                	xchg   ax,ax
    1110:	31 ed                	xor    ebp,ebp
    1112:	49 89 d1             	mov    r9,rdx
    1115:	5e                   	pop    rsi
    1116:	48 89 e2             	mov    rdx,rsp
    1119:	48 83 e4 f0          	and    rsp,0xfffffffffffffff0
    111d:	50                   	push   rax
    111e:	54                   	push   rsp
    111f:	45 31 c0             	xor    r8d,r8d
    1122:	31 c9                	xor    ecx,ecx
    1124:	48 8d 3d 55 ff ff ff 	lea    rdi,[rip+0xffffffffffffff55]        # 1080 <__cxa_finalize@plt+0x10>
    112b:	ff 15 8f 2e 00 00    	call   QWORD PTR [rip+0x2e8f]        # 3fc0 <__cxa_finalize@plt+0x2f50>
    1131:	f4                   	hlt    
    1132:	66 2e 0f 1f 84 00 00 	cs nop WORD PTR [rax+rax*1+0x0]
    1139:	00 00 00 
    113c:	0f 1f 40 00          	nop    DWORD PTR [rax+0x0]
    1140:	48 8d 3d e9 2e 00 00 	lea    rdi,[rip+0x2ee9]        # 4030 <__cxa_finalize@plt+0x2fc0>
    1147:	48 8d 05 e2 2e 00 00 	lea    rax,[rip+0x2ee2]        # 4030 <__cxa_finalize@plt+0x2fc0>
    114e:	48 39 f8             	cmp    rax,rdi
    1151:	74 15                	je     1168 <__cxa_finalize@plt+0xf8>
    1153:	48 8b 05 6e 2e 00 00 	mov    rax,QWORD PTR [rip+0x2e6e]        # 3fc8 <__cxa_finalize@plt+0x2f58>
    115a:	48 85 c0             	test   rax,rax
    115d:	74 09                	je     1168 <__cxa_finalize@plt+0xf8>
    115f:	ff e0                	jmp    rax
    1161:	0f 1f 80 00 00 00 00 	nop    DWORD PTR [rax+0x0]
    1168:	c3                   	ret    
    1169:	0f 1f 80 00 00 00 00 	nop    DWORD PTR [rax+0x0]
    1170:	48 8d 3d b9 2e 00 00 	lea    rdi,[rip+0x2eb9]        # 4030 <__cxa_finalize@plt+0x2fc0>
    1177:	48 8d 35 b2 2e 00 00 	lea    rsi,[rip+0x2eb2]        # 4030 <__cxa_finalize@plt+0x2fc0>
    117e:	48 29 fe             	sub    rsi,rdi
    1181:	48 89 f0             	mov    rax,rsi
    1184:	48 c1 ee 3f          	shr    rsi,0x3f
    1188:	48 c1 f8 03          	sar    rax,0x3
    118c:	48 01 c6             	add    rsi,rax
    118f:	48 d1 fe             	sar    rsi,1
    1192:	74 14                	je     11a8 <__cxa_finalize@plt+0x138>
    1194:	48 8b 05 3d 2e 00 00 	mov    rax,QWORD PTR [rip+0x2e3d]        # 3fd8 <__cxa_finalize@plt+0x2f68>
    119b:	48 85 c0             	test   rax,rax
    119e:	74 08                	je     11a8 <__cxa_finalize@plt+0x138>
    11a0:	ff e0                	jmp    rax
    11a2:	66 0f 1f 44 00 00    	nop    WORD PTR [rax+rax*1+0x0]
    11a8:	c3                   	ret    
    11a9:	0f 1f 80 00 00 00 00 	nop    DWORD PTR [rax+0x0]
    11b0:	f3 0f 1e fa          	endbr64 
    11b4:	80 3d ad 2e 00 00 00 	cmp    BYTE PTR [rip+0x2ead],0x0        # 4068 <stderr@GLIBC_2.2.5+0x8>
    11bb:	75 2b                	jne    11e8 <__cxa_finalize@plt+0x178>
    11bd:	55                   	push   rbp
    11be:	48 83 3d 1a 2e 00 00 	cmp    QWORD PTR [rip+0x2e1a],0x0        # 3fe0 <__cxa_finalize@plt+0x2f70>
    11c5:	00 
    11c6:	48 89 e5             	mov    rbp,rsp
    11c9:	74 0c                	je     11d7 <__cxa_finalize@plt+0x167>
    11cb:	48 8b 3d 56 2e 00 00 	mov    rdi,QWORD PTR [rip+0x2e56]        # 4028 <__cxa_finalize@plt+0x2fb8>
    11d2:	e8 99 fe ff ff       	call   1070 <__cxa_finalize@plt>
    11d7:	e8 64 ff ff ff       	call   1140 <__cxa_finalize@plt+0xd0>
    11dc:	c6 05 85 2e 00 00 01 	mov    BYTE PTR [rip+0x2e85],0x1        # 4068 <stderr@GLIBC_2.2.5+0x8>
    11e3:	5d                   	pop    rbp
    11e4:	c3                   	ret    
    11e5:	0f 1f 00             	nop    DWORD PTR [rax]
    11e8:	c3                   	ret    
    11e9:	0f 1f 80 00 00 00 00 	nop    DWORD PTR [rax+0x0]
    11f0:	f3 0f 1e fa          	endbr64 
    11f4:	e9 77 ff ff ff       	jmp    1170 <__cxa_finalize@plt+0x100>
    11f9:	0f 1f 80 00 00 00 00 	nop    DWORD PTR [rax+0x0]
    1200:	48 83 ec 08          	sub    rsp,0x8
    1204:	ba 10 00 00 00       	mov    edx,0x10
    1209:	be 01 00 00 00       	mov    esi,0x1
    120e:	48 8b 0d 4b 2e 00 00 	mov    rcx,QWORD PTR [rip+0x2e4b]        # 4060 <stderr@GLIBC_2.2.5>
    1215:	48 8d 3d e8 0d 00 00 	lea    rdi,[rip+0xde8]        # 2004 <__cxa_finalize@plt+0xf94>
    121c:	e8 3f fe ff ff       	call   1060 <fwrite@plt>
    1221:	bf 01 00 00 00       	mov    edi,0x1
    1226:	e8 25 fe ff ff       	call   1050 <exit@plt>
    122b:	0f 1f 44 00 00       	nop    DWORD PTR [rax+rax*1+0x0]
    1230:	48 83 ec 08          	sub    rsp,0x8
    1234:	ba 0f 00 00 00       	mov    edx,0xf
    1239:	be 01 00 00 00       	mov    esi,0x1
    123e:	48 8b 0d 1b 2e 00 00 	mov    rcx,QWORD PTR [rip+0x2e1b]        # 4060 <stderr@GLIBC_2.2.5>
    1245:	48 8d 3d c9 0d 00 00 	lea    rdi,[rip+0xdc9]        # 2015 <__cxa_finalize@plt+0xfa5>
    124c:	e8 0f fe ff ff       	call   1060 <fwrite@plt>
    1251:	bf 01 00 00 00       	mov    edi,0x1
    1256:	e8 f5 fd ff ff       	call   1050 <exit@plt>
    125b:	0f 1f 44 00 00       	nop    DWORD PTR [rax+rax*1+0x0]
    1260:	81 ff ed 00 00 00    	cmp    edi,0xed
    1266:	0f 8f 1d 02 00 00    	jg     1489 <__cxa_finalize@plt+0x419>
    126c:	41 56                	push   r14
    126e:	41 55                	push   r13
    1270:	4c 8d 2d 09 2e 00 00 	lea    r13,[rip+0x2e09]        # 4080 <stderr@GLIBC_2.2.5+0x20>
    1277:	41 54                	push   r12
    1279:	4c 8d 25 e0 0d 00 00 	lea    r12,[rip+0xde0]        # 2060 <__cxa_finalize@plt+0xff0>
    1280:	55                   	push   rbp
    1281:	53                   	push   rbx
    1282:	89 fb                	mov    ebx,edi
    1284:	90                   	nop
    1285:	66 66 2e 0f 1f 84 00 	data16 cs nop WORD PTR [rax+rax*1+0x0]
    128c:	00 00 00 00 
    1290:	48 63 c3             	movsxd rax,ebx
    1293:	41 0f b6 54 05 00    	movzx  edx,BYTE PTR [r13+rax*1+0x0]
    1299:	80 fa 08             	cmp    dl,0x8
    129c:	0f 87 e8 01 00 00    	ja     148a <__cxa_finalize@plt+0x41a>
    12a2:	0f b6 c2             	movzx  eax,dl
    12a5:	49 63 04 84          	movsxd rax,DWORD PTR [r12+rax*4]
    12a9:	4c 01 e0             	add    rax,r12
    12ac:	ff e0                	jmp    rax
    12ae:	66 90                	xchg   ax,ax
    12b0:	8d 43 01             	lea    eax,[rbx+0x1]
    12b3:	83 c3 02             	add    ebx,0x2
    12b6:	48 98                	cdqe   
    12b8:	41 0f b6 7c 05 00    	movzx  edi,BYTE PTR [r13+rax*1+0x0]
    12be:	e8 9d ff ff ff       	call   1260 <__cxa_finalize@plt+0x1f0>
    12c3:	66 90                	xchg   ax,ax
    12c5:	66 66 2e 0f 1f 84 00 	data16 cs nop WORD PTR [rax+rax*1+0x0]
    12cc:	00 00 00 00 
    12d0:	81 fb ed 00 00 00    	cmp    ebx,0xed
    12d6:	7e b8                	jle    1290 <__cxa_finalize@plt+0x220>
    12d8:	5b                   	pop    rbx
    12d9:	5d                   	pop    rbp
    12da:	41 5c                	pop    r12
    12dc:	41 5d                	pop    r13
    12de:	41 5e                	pop    r14
    12e0:	c3                   	ret    
    12e1:	0f 1f 80 00 00 00 00 	nop    DWORD PTR [rax+0x0]
    12e8:	48 63 05 91 2f 00 00 	movsxd rax,DWORD PTR [rip+0x2f91]        # 4280 <stderr@GLIBC_2.2.5+0x220>
    12ef:	3d ff 00 00 00       	cmp    eax,0xff
    12f4:	0f 8f b6 01 00 00    	jg     14b0 <__cxa_finalize@plt+0x440>
    12fa:	8d 53 01             	lea    edx,[rbx+0x1]
    12fd:	48 8d 0d 7c 2e 00 00 	lea    rcx,[rip+0x2e7c]        # 4180 <stderr@GLIBC_2.2.5+0x120>
    1304:	48 63 d2             	movsxd rdx,edx
    1307:	41 0f b6 54 15 00    	movzx  edx,BYTE PTR [r13+rdx*1+0x0]
    130d:	0f b6 0c 11          	movzx  ecx,BYTE PTR [rcx+rdx*1]
    1311:	8d 50 01             	lea    edx,[rax+0x1]
    1314:	83 c3 02             	add    ebx,0x2
    1317:	89 15 63 2f 00 00    	mov    DWORD PTR [rip+0x2f63],edx        # 4280 <stderr@GLIBC_2.2.5+0x220>
    131d:	48 8d 15 7c 2f 00 00 	lea    rdx,[rip+0x2f7c]        # 42a0 <stderr@GLIBC_2.2.5+0x240>
    1324:	88 0c 02             	mov    BYTE PTR [rdx+rax*1],cl
    1327:	eb a7                	jmp    12d0 <__cxa_finalize@plt+0x260>
    1329:	0f 1f 80 00 00 00 00 	nop    DWORD PTR [rax+0x0]
    1330:	8b 05 4a 2f 00 00    	mov    eax,DWORD PTR [rip+0x2f4a]        # 4280 <stderr@GLIBC_2.2.5+0x220>
    1336:	85 c0                	test   eax,eax
    1338:	0f 8e 6d 01 00 00    	jle    14ab <__cxa_finalize@plt+0x43b>
    133e:	8d 53 01             	lea    edx,[rbx+0x1]
    1341:	83 e8 01             	sub    eax,0x1
    1344:	48 8d 0d 55 2f 00 00 	lea    rcx,[rip+0x2f55]        # 42a0 <stderr@GLIBC_2.2.5+0x240>
    134b:	83 c3 02             	add    ebx,0x2
    134e:	89 05 2c 2f 00 00    	mov    DWORD PTR [rip+0x2f2c],eax        # 4280 <stderr@GLIBC_2.2.5+0x220>
    1354:	48 63 d2             	movsxd rdx,edx
    1357:	48 98                	cdqe   
    1359:	0f b6 0c 01          	movzx  ecx,BYTE PTR [rcx+rax*1]
    135d:	41 0f b6 54 15 00    	movzx  edx,BYTE PTR [r13+rdx*1+0x0]
    1363:	48 8d 05 16 2e 00 00 	lea    rax,[rip+0x2e16]        # 4180 <stderr@GLIBC_2.2.5+0x120>
    136a:	88 0c 10             	mov    BYTE PTR [rax+rdx*1],cl
    136d:	e9 5e ff ff ff       	jmp    12d0 <__cxa_finalize@plt+0x260>
    1372:	66 0f 1f 44 00 00    	nop    WORD PTR [rax+rax*1+0x0]
    1378:	8b 15 02 2f 00 00    	mov    edx,DWORD PTR [rip+0x2f02]        # 4280 <stderr@GLIBC_2.2.5+0x220>
    137e:	85 d2                	test   edx,edx
    1380:	0f 8e 25 01 00 00    	jle    14ab <__cxa_finalize@plt+0x43b>
    1386:	8d 43 01             	lea    eax,[rbx+0x1]
    1389:	48 98                	cdqe   
    138b:	41 0f b6 74 05 00    	movzx  esi,BYTE PTR [r13+rax*1+0x0]
    1391:	8d 42 ff             	lea    eax,[rdx-0x1]
    1394:	89 05 e6 2e 00 00    	mov    DWORD PTR [rip+0x2ee6],eax        # 4280 <stderr@GLIBC_2.2.5+0x220>
    139a:	3d ff 00 00 00       	cmp    eax,0xff
    139f:	0f 8f 0b 01 00 00    	jg     14b0 <__cxa_finalize@plt+0x440>
    13a5:	48 8d 0d f4 2e 00 00 	lea    rcx,[rip+0x2ef4]        # 42a0 <stderr@GLIBC_2.2.5+0x240>
    13ac:	48 98                	cdqe   
    13ae:	89 15 cc 2e 00 00    	mov    DWORD PTR [rip+0x2ecc],edx        # 4280 <stderr@GLIBC_2.2.5+0x220>
    13b4:	83 c3 02             	add    ebx,0x2
    13b7:	40 00 34 01          	add    BYTE PTR [rcx+rax*1],sil
    13bb:	e9 10 ff ff ff       	jmp    12d0 <__cxa_finalize@plt+0x260>
    13c0:	8b 05 ba 2e 00 00    	mov    eax,DWORD PTR [rip+0x2eba]        # 4280 <stderr@GLIBC_2.2.5+0x220>
    13c6:	85 c0                	test   eax,eax
    13c8:	0f 8e dd 00 00 00    	jle    14ab <__cxa_finalize@plt+0x43b>
    13ce:	8d 50 ff             	lea    edx,[rax-0x1]
    13d1:	89 15 a9 2e 00 00    	mov    DWORD PTR [rip+0x2ea9],edx        # 4280 <stderr@GLIBC_2.2.5+0x220>
    13d7:	85 d2                	test   edx,edx
    13d9:	0f 84 cc 00 00 00    	je     14ab <__cxa_finalize@plt+0x43b>
    13df:	48 8d 0d ba 2e 00 00 	lea    rcx,[rip+0x2eba]        # 42a0 <stderr@GLIBC_2.2.5+0x240>
    13e6:	48 63 f2             	movsxd rsi,edx
    13e9:	83 e8 02             	sub    eax,0x2
    13ec:	89 05 8e 2e 00 00    	mov    DWORD PTR [rip+0x2e8e],eax        # 4280 <stderr@GLIBC_2.2.5+0x220>
    13f2:	0f b6 34 31          	movzx  esi,BYTE PTR [rcx+rsi*1]
    13f6:	3d ff 00 00 00       	cmp    eax,0xff
    13fb:	0f 8f af 00 00 00    	jg     14b0 <__cxa_finalize@plt+0x440>
    1401:	48 98                	cdqe   
    1403:	89 15 77 2e 00 00    	mov    DWORD PTR [rip+0x2e77],edx        # 4280 <stderr@GLIBC_2.2.5+0x220>
    1409:	83 c3 01             	add    ebx,0x1
    140c:	40 30 34 01          	xor    BYTE PTR [rcx+rax*1],sil
    1410:	e9 bb fe ff ff       	jmp    12d0 <__cxa_finalize@plt+0x260>
    1415:	0f 1f 00             	nop    DWORD PTR [rax]
    1418:	48 63 05 61 2e 00 00 	movsxd rax,DWORD PTR [rip+0x2e61]        # 4280 <stderr@GLIBC_2.2.5+0x220>
    141f:	3d ff 00 00 00       	cmp    eax,0xff
    1424:	0f 8f 86 00 00 00    	jg     14b0 <__cxa_finalize@plt+0x440>
    142a:	8d 53 01             	lea    edx,[rbx+0x1]
    142d:	48 63 d2             	movsxd rdx,edx
    1430:	41 0f b6 4c 15 00    	movzx  ecx,BYTE PTR [r13+rdx*1+0x0]
    1436:	e9 d6 fe ff ff       	jmp    1311 <__cxa_finalize@plt+0x2a1>
    143b:	0f 1f 44 00 00       	nop    DWORD PTR [rax+rax*1+0x0]
    1440:	4c 8d 35 39 2d 00 00 	lea    r14,[rip+0x2d39]        # 4180 <stderr@GLIBC_2.2.5+0x120>
    1447:	49 8d 6e 1d          	lea    rbp,[r14+0x1d]
    144b:	0f 1f 44 00 00       	nop    DWORD PTR [rax+rax*1+0x0]
    1450:	41 0f b6 3e          	movzx  edi,BYTE PTR [r14]
    1454:	48 8b 35 e5 2b 00 00 	mov    rsi,QWORD PTR [rip+0x2be5]        # 4040 <stdout@GLIBC_2.2.5>
    145b:	49 83 c6 01          	add    r14,0x1
    145f:	83 f7 55             	xor    edi,0x55
    1462:	40 0f b6 ff          	movzx  edi,dil
    1466:	e8 c5 fb ff ff       	call   1030 <putc@plt>
    146b:	49 39 ee             	cmp    r14,rbp
    146e:	75 e0                	jne    1450 <__cxa_finalize@plt+0x3e0>
    1470:	48 8b 35 c9 2b 00 00 	mov    rsi,QWORD PTR [rip+0x2bc9]        # 4040 <stdout@GLIBC_2.2.5>
    1477:	bf 0a 00 00 00       	mov    edi,0xa
    147c:	83 c3 01             	add    ebx,0x1
    147f:	e8 ac fb ff ff       	call   1030 <putc@plt>
    1484:	e9 47 fe ff ff       	jmp    12d0 <__cxa_finalize@plt+0x260>
    1489:	c3                   	ret    
    148a:	48 8b 3d cf 2b 00 00 	mov    rdi,QWORD PTR [rip+0x2bcf]        # 4060 <stderr@GLIBC_2.2.5>
    1491:	89 d9                	mov    ecx,ebx
    1493:	48 8d 35 8e 0b 00 00 	lea    rsi,[rip+0xb8e]        # 2028 <__cxa_finalize@plt+0xfb8>
    149a:	31 c0                	xor    eax,eax
    149c:	e8 9f fb ff ff       	call   1040 <fprintf@plt>
    14a1:	bf 01 00 00 00       	mov    edi,0x1
    14a6:	e8 a5 fb ff ff       	call   1050 <exit@plt>
    14ab:	e8 50 fd ff ff       	call   1200 <__cxa_finalize@plt+0x190>
    14b0:	e8 7b fd ff ff       	call   1230 <__cxa_finalize@plt+0x1c0>

Disassembly of section .fini:

00000000000014b8 <.fini>:
    14b8:	48 83 ec 08          	sub    rsp,0x8
    14bc:	48 83 c4 08          	add    rsp,0x8
    14c0:	c3                   	ret    
