
./game:     file format elf64-x86-64


Disassembly of section .init:

0000000000002000 <_init>:
    2000:	f3 0f 1e fa          	endbr64 
    2004:	48 83 ec 08          	sub    $0x8,%rsp
    2008:	48 8b 05 c9 4f 00 00 	mov    0x4fc9(%rip),%rax        # 6fd8 <__gmon_start__@Base>
    200f:	48 85 c0             	test   %rax,%rax
    2012:	74 02                	je     2016 <_init+0x16>
    2014:	ff d0                	call   *%rax
    2016:	48 83 c4 08          	add    $0x8,%rsp
    201a:	c3                   	ret    

Disassembly of section .plt:

0000000000002020 <.plt>:
    2020:	ff 35 2a 4e 00 00    	push   0x4e2a(%rip)        # 6e50 <_GLOBAL_OFFSET_TABLE_+0x8>
    2026:	ff 25 2c 4e 00 00    	jmp    *0x4e2c(%rip)        # 6e58 <_GLOBAL_OFFSET_TABLE_+0x10>
    202c:	0f 1f 40 00          	nopl   0x0(%rax)
    2030:	f3 0f 1e fa          	endbr64 
    2034:	68 00 00 00 00       	push   $0x0
    2039:	e9 e2 ff ff ff       	jmp    2020 <_init+0x20>
    203e:	66 90                	xchg   %ax,%ax
    2040:	f3 0f 1e fa          	endbr64 
    2044:	68 01 00 00 00       	push   $0x1
    2049:	e9 d2 ff ff ff       	jmp    2020 <_init+0x20>
    204e:	66 90                	xchg   %ax,%ax
    2050:	f3 0f 1e fa          	endbr64 
    2054:	68 02 00 00 00       	push   $0x2
    2059:	e9 c2 ff ff ff       	jmp    2020 <_init+0x20>
    205e:	66 90                	xchg   %ax,%ax
    2060:	f3 0f 1e fa          	endbr64 
    2064:	68 03 00 00 00       	push   $0x3
    2069:	e9 b2 ff ff ff       	jmp    2020 <_init+0x20>
    206e:	66 90                	xchg   %ax,%ax
    2070:	f3 0f 1e fa          	endbr64 
    2074:	68 04 00 00 00       	push   $0x4
    2079:	e9 a2 ff ff ff       	jmp    2020 <_init+0x20>
    207e:	66 90                	xchg   %ax,%ax
    2080:	f3 0f 1e fa          	endbr64 
    2084:	68 05 00 00 00       	push   $0x5
    2089:	e9 92 ff ff ff       	jmp    2020 <_init+0x20>
    208e:	66 90                	xchg   %ax,%ax
    2090:	f3 0f 1e fa          	endbr64 
    2094:	68 06 00 00 00       	push   $0x6
    2099:	e9 82 ff ff ff       	jmp    2020 <_init+0x20>
    209e:	66 90                	xchg   %ax,%ax
    20a0:	f3 0f 1e fa          	endbr64 
    20a4:	68 07 00 00 00       	push   $0x7
    20a9:	e9 72 ff ff ff       	jmp    2020 <_init+0x20>
    20ae:	66 90                	xchg   %ax,%ax
    20b0:	f3 0f 1e fa          	endbr64 
    20b4:	68 08 00 00 00       	push   $0x8
    20b9:	e9 62 ff ff ff       	jmp    2020 <_init+0x20>
    20be:	66 90                	xchg   %ax,%ax
    20c0:	f3 0f 1e fa          	endbr64 
    20c4:	68 09 00 00 00       	push   $0x9
    20c9:	e9 52 ff ff ff       	jmp    2020 <_init+0x20>
    20ce:	66 90                	xchg   %ax,%ax
    20d0:	f3 0f 1e fa          	endbr64 
    20d4:	68 0a 00 00 00       	push   $0xa
    20d9:	e9 42 ff ff ff       	jmp    2020 <_init+0x20>
    20de:	66 90                	xchg   %ax,%ax
    20e0:	f3 0f 1e fa          	endbr64 
    20e4:	68 0b 00 00 00       	push   $0xb
    20e9:	e9 32 ff ff ff       	jmp    2020 <_init+0x20>
    20ee:	66 90                	xchg   %ax,%ax
    20f0:	f3 0f 1e fa          	endbr64 
    20f4:	68 0c 00 00 00       	push   $0xc
    20f9:	e9 22 ff ff ff       	jmp    2020 <_init+0x20>
    20fe:	66 90                	xchg   %ax,%ax
    2100:	f3 0f 1e fa          	endbr64 
    2104:	68 0d 00 00 00       	push   $0xd
    2109:	e9 12 ff ff ff       	jmp    2020 <_init+0x20>
    210e:	66 90                	xchg   %ax,%ax
    2110:	f3 0f 1e fa          	endbr64 
    2114:	68 0e 00 00 00       	push   $0xe
    2119:	e9 02 ff ff ff       	jmp    2020 <_init+0x20>
    211e:	66 90                	xchg   %ax,%ax
    2120:	f3 0f 1e fa          	endbr64 
    2124:	68 0f 00 00 00       	push   $0xf
    2129:	e9 f2 fe ff ff       	jmp    2020 <_init+0x20>
    212e:	66 90                	xchg   %ax,%ax
    2130:	f3 0f 1e fa          	endbr64 
    2134:	68 10 00 00 00       	push   $0x10
    2139:	e9 e2 fe ff ff       	jmp    2020 <_init+0x20>
    213e:	66 90                	xchg   %ax,%ax
    2140:	f3 0f 1e fa          	endbr64 
    2144:	68 11 00 00 00       	push   $0x11
    2149:	e9 d2 fe ff ff       	jmp    2020 <_init+0x20>
    214e:	66 90                	xchg   %ax,%ax
    2150:	f3 0f 1e fa          	endbr64 
    2154:	68 12 00 00 00       	push   $0x12
    2159:	e9 c2 fe ff ff       	jmp    2020 <_init+0x20>
    215e:	66 90                	xchg   %ax,%ax
    2160:	f3 0f 1e fa          	endbr64 
    2164:	68 13 00 00 00       	push   $0x13
    2169:	e9 b2 fe ff ff       	jmp    2020 <_init+0x20>
    216e:	66 90                	xchg   %ax,%ax
    2170:	f3 0f 1e fa          	endbr64 
    2174:	68 14 00 00 00       	push   $0x14
    2179:	e9 a2 fe ff ff       	jmp    2020 <_init+0x20>
    217e:	66 90                	xchg   %ax,%ax
    2180:	f3 0f 1e fa          	endbr64 
    2184:	68 15 00 00 00       	push   $0x15
    2189:	e9 92 fe ff ff       	jmp    2020 <_init+0x20>
    218e:	66 90                	xchg   %ax,%ax
    2190:	f3 0f 1e fa          	endbr64 
    2194:	68 16 00 00 00       	push   $0x16
    2199:	e9 82 fe ff ff       	jmp    2020 <_init+0x20>
    219e:	66 90                	xchg   %ax,%ax
    21a0:	f3 0f 1e fa          	endbr64 
    21a4:	68 17 00 00 00       	push   $0x17
    21a9:	e9 72 fe ff ff       	jmp    2020 <_init+0x20>
    21ae:	66 90                	xchg   %ax,%ax
    21b0:	f3 0f 1e fa          	endbr64 
    21b4:	68 18 00 00 00       	push   $0x18
    21b9:	e9 62 fe ff ff       	jmp    2020 <_init+0x20>
    21be:	66 90                	xchg   %ax,%ax
    21c0:	f3 0f 1e fa          	endbr64 
    21c4:	68 19 00 00 00       	push   $0x19
    21c9:	e9 52 fe ff ff       	jmp    2020 <_init+0x20>
    21ce:	66 90                	xchg   %ax,%ax
    21d0:	f3 0f 1e fa          	endbr64 
    21d4:	68 1a 00 00 00       	push   $0x1a
    21d9:	e9 42 fe ff ff       	jmp    2020 <_init+0x20>
    21de:	66 90                	xchg   %ax,%ax
    21e0:	f3 0f 1e fa          	endbr64 
    21e4:	68 1b 00 00 00       	push   $0x1b
    21e9:	e9 32 fe ff ff       	jmp    2020 <_init+0x20>
    21ee:	66 90                	xchg   %ax,%ax
    21f0:	f3 0f 1e fa          	endbr64 
    21f4:	68 1c 00 00 00       	push   $0x1c
    21f9:	e9 22 fe ff ff       	jmp    2020 <_init+0x20>
    21fe:	66 90                	xchg   %ax,%ax
    2200:	f3 0f 1e fa          	endbr64 
    2204:	68 1d 00 00 00       	push   $0x1d
    2209:	e9 12 fe ff ff       	jmp    2020 <_init+0x20>
    220e:	66 90                	xchg   %ax,%ax
    2210:	f3 0f 1e fa          	endbr64 
    2214:	68 1e 00 00 00       	push   $0x1e
    2219:	e9 02 fe ff ff       	jmp    2020 <_init+0x20>
    221e:	66 90                	xchg   %ax,%ax
    2220:	f3 0f 1e fa          	endbr64 
    2224:	68 1f 00 00 00       	push   $0x1f
    2229:	e9 f2 fd ff ff       	jmp    2020 <_init+0x20>
    222e:	66 90                	xchg   %ax,%ax
    2230:	f3 0f 1e fa          	endbr64 
    2234:	68 20 00 00 00       	push   $0x20
    2239:	e9 e2 fd ff ff       	jmp    2020 <_init+0x20>
    223e:	66 90                	xchg   %ax,%ax
    2240:	f3 0f 1e fa          	endbr64 
    2244:	68 21 00 00 00       	push   $0x21
    2249:	e9 d2 fd ff ff       	jmp    2020 <_init+0x20>
    224e:	66 90                	xchg   %ax,%ax
    2250:	f3 0f 1e fa          	endbr64 
    2254:	68 22 00 00 00       	push   $0x22
    2259:	e9 c2 fd ff ff       	jmp    2020 <_init+0x20>
    225e:	66 90                	xchg   %ax,%ax
    2260:	f3 0f 1e fa          	endbr64 
    2264:	68 23 00 00 00       	push   $0x23
    2269:	e9 b2 fd ff ff       	jmp    2020 <_init+0x20>
    226e:	66 90                	xchg   %ax,%ax
    2270:	f3 0f 1e fa          	endbr64 
    2274:	68 24 00 00 00       	push   $0x24
    2279:	e9 a2 fd ff ff       	jmp    2020 <_init+0x20>
    227e:	66 90                	xchg   %ax,%ax
    2280:	f3 0f 1e fa          	endbr64 
    2284:	68 25 00 00 00       	push   $0x25
    2289:	e9 92 fd ff ff       	jmp    2020 <_init+0x20>
    228e:	66 90                	xchg   %ax,%ax
    2290:	f3 0f 1e fa          	endbr64 
    2294:	68 26 00 00 00       	push   $0x26
    2299:	e9 82 fd ff ff       	jmp    2020 <_init+0x20>
    229e:	66 90                	xchg   %ax,%ax
    22a0:	f3 0f 1e fa          	endbr64 
    22a4:	68 27 00 00 00       	push   $0x27
    22a9:	e9 72 fd ff ff       	jmp    2020 <_init+0x20>
    22ae:	66 90                	xchg   %ax,%ax
    22b0:	f3 0f 1e fa          	endbr64 
    22b4:	68 28 00 00 00       	push   $0x28
    22b9:	e9 62 fd ff ff       	jmp    2020 <_init+0x20>
    22be:	66 90                	xchg   %ax,%ax
    22c0:	f3 0f 1e fa          	endbr64 
    22c4:	68 29 00 00 00       	push   $0x29
    22c9:	e9 52 fd ff ff       	jmp    2020 <_init+0x20>
    22ce:	66 90                	xchg   %ax,%ax
    22d0:	f3 0f 1e fa          	endbr64 
    22d4:	68 2a 00 00 00       	push   $0x2a
    22d9:	e9 42 fd ff ff       	jmp    2020 <_init+0x20>
    22de:	66 90                	xchg   %ax,%ax
    22e0:	f3 0f 1e fa          	endbr64 
    22e4:	68 2b 00 00 00       	push   $0x2b
    22e9:	e9 32 fd ff ff       	jmp    2020 <_init+0x20>
    22ee:	66 90                	xchg   %ax,%ax
    22f0:	f3 0f 1e fa          	endbr64 
    22f4:	68 2c 00 00 00       	push   $0x2c
    22f9:	e9 22 fd ff ff       	jmp    2020 <_init+0x20>
    22fe:	66 90                	xchg   %ax,%ax
    2300:	f3 0f 1e fa          	endbr64 
    2304:	68 2d 00 00 00       	push   $0x2d
    2309:	e9 12 fd ff ff       	jmp    2020 <_init+0x20>
    230e:	66 90                	xchg   %ax,%ax
    2310:	f3 0f 1e fa          	endbr64 
    2314:	68 2e 00 00 00       	push   $0x2e
    2319:	e9 02 fd ff ff       	jmp    2020 <_init+0x20>
    231e:	66 90                	xchg   %ax,%ax

Disassembly of section .plt.got:

0000000000002320 <.plt.got>:
    2320:	f3 0f 1e fa          	endbr64 
    2324:	ff 25 c6 4c 00 00    	jmp    *0x4cc6(%rip)        # 6ff0 <__cxa_finalize@GLIBC_2.2.5>
    232a:	66 0f 1f 44 00 00    	nopw   0x0(%rax,%rax,1)

Disassembly of section .plt.sec:

0000000000002330 <.plt.sec>:
    2330:	f3 0f 1e fa          	endbr64 
    2334:	ff 25 26 4b 00 00    	jmp    *0x4b26(%rip)        # 6e60 <nodelay@NCURSES6_TINFO_5.0.19991023>
    233a:	66 0f 1f 44 00 00    	nopw   0x0(%rax,%rax,1)
    2340:	f3 0f 1e fa          	endbr64 
    2344:	ff 25 1e 4b 00 00    	jmp    *0x4b1e(%rip)        # 6e68 <printf@GLIBC_2.2.5>
    234a:	66 0f 1f 44 00 00    	nopw   0x0(%rax,%rax,1)
    2350:	f3 0f 1e fa          	endbr64 
    2354:	ff 25 16 4b 00 00    	jmp    *0x4b16(%rip)        # 6e70 <snprintf@GLIBC_2.2.5>
    235a:	66 0f 1f 44 00 00    	nopw   0x0(%rax,%rax,1)
    2360:	f3 0f 1e fa          	endbr64 
    2364:	ff 25 0e 4b 00 00    	jmp    *0x4b0e(%rip)        # 6e78 <waddch@NCURSESW6_5.1.20000708>
    236a:	66 0f 1f 44 00 00    	nopw   0x0(%rax,%rax,1)
    2370:	f3 0f 1e fa          	endbr64 
    2374:	ff 25 06 4b 00 00    	jmp    *0x4b06(%rip)        # 6e80 <init_pair@NCURSESW6_5.1.20000708>
    237a:	66 0f 1f 44 00 00    	nopw   0x0(%rax,%rax,1)
    2380:	f3 0f 1e fa          	endbr64 
    2384:	ff 25 fe 4a 00 00    	jmp    *0x4afe(%rip)        # 6e88 <echo@NCURSESW6_5.1.20000708>
    238a:	66 0f 1f 44 00 00    	nopw   0x0(%rax,%rax,1)
    2390:	f3 0f 1e fa          	endbr64 
    2394:	ff 25 f6 4a 00 00    	jmp    *0x4af6(%rip)        # 6e90 <mvprintw@NCURSESW6_5.1.20000708>
    239a:	66 0f 1f 44 00 00    	nopw   0x0(%rax,%rax,1)
    23a0:	f3 0f 1e fa          	endbr64 
    23a4:	ff 25 ee 4a 00 00    	jmp    *0x4aee(%rip)        # 6e98 <init_color@NCURSESW6_5.1.20000708>
    23aa:	66 0f 1f 44 00 00    	nopw   0x0(%rax,%rax,1)
    23b0:	f3 0f 1e fa          	endbr64 
    23b4:	ff 25 e6 4a 00 00    	jmp    *0x4ae6(%rip)        # 6ea0 <puts@GLIBC_2.2.5>
    23ba:	66 0f 1f 44 00 00    	nopw   0x0(%rax,%rax,1)
    23c0:	f3 0f 1e fa          	endbr64 
    23c4:	ff 25 de 4a 00 00    	jmp    *0x4ade(%rip)        # 6ea8 <uname@GLIBC_2.2.5>
    23ca:	66 0f 1f 44 00 00    	nopw   0x0(%rax,%rax,1)
    23d0:	f3 0f 1e fa          	endbr64 
    23d4:	ff 25 d6 4a 00 00    	jmp    *0x4ad6(%rip)        # 6eb0 <exit@GLIBC_2.2.5>
    23da:	66 0f 1f 44 00 00    	nopw   0x0(%rax,%rax,1)
    23e0:	f3 0f 1e fa          	endbr64 
    23e4:	ff 25 ce 4a 00 00    	jmp    *0x4ace(%rip)        # 6eb8 <noecho@NCURSESW6_5.1.20000708>
    23ea:	66 0f 1f 44 00 00    	nopw   0x0(%rax,%rax,1)
    23f0:	f3 0f 1e fa          	endbr64 
    23f4:	ff 25 c6 4a 00 00    	jmp    *0x4ac6(%rip)        # 6ec0 <keypad@NCURSES6_TINFO_5.0.19991023>
    23fa:	66 0f 1f 44 00 00    	nopw   0x0(%rax,%rax,1)
    2400:	f3 0f 1e fa          	endbr64 
    2404:	ff 25 be 4a 00 00    	jmp    *0x4abe(%rip)        # 6ec8 <getmaxx@NCURSESW6_5.6.20061217>
    240a:	66 0f 1f 44 00 00    	nopw   0x0(%rax,%rax,1)
    2410:	f3 0f 1e fa          	endbr64 
    2414:	ff 25 b6 4a 00 00    	jmp    *0x4ab6(%rip)        # 6ed0 <curs_set@NCURSES6_TINFO_5.0.19991023>
    241a:	66 0f 1f 44 00 00    	nopw   0x0(%rax,%rax,1)
    2420:	f3 0f 1e fa          	endbr64 
    2424:	ff 25 ae 4a 00 00    	jmp    *0x4aae(%rip)        # 6ed8 <gmtime@GLIBC_2.2.5>
    242a:	66 0f 1f 44 00 00    	nopw   0x0(%rax,%rax,1)
    2430:	f3 0f 1e fa          	endbr64 
    2434:	ff 25 a6 4a 00 00    	jmp    *0x4aa6(%rip)        # 6ee0 <wmove@NCURSESW6_5.1.20000708>
    243a:	66 0f 1f 44 00 00    	nopw   0x0(%rax,%rax,1)
    2440:	f3 0f 1e fa          	endbr64 
    2444:	ff 25 9e 4a 00 00    	jmp    *0x4a9e(%rip)        # 6ee8 <strlen@GLIBC_2.2.5>
    244a:	66 0f 1f 44 00 00    	nopw   0x0(%rax,%rax,1)
    2450:	f3 0f 1e fa          	endbr64 
    2454:	ff 25 96 4a 00 00    	jmp    *0x4a96(%rip)        # 6ef0 <pclose@GLIBC_2.2.5>
    245a:	66 0f 1f 44 00 00    	nopw   0x0(%rax,%rax,1)
    2460:	f3 0f 1e fa          	endbr64 
    2464:	ff 25 8e 4a 00 00    	jmp    *0x4a8e(%rip)        # 6ef8 <werase@NCURSESW6_5.1.20000708>
    246a:	66 0f 1f 44 00 00    	nopw   0x0(%rax,%rax,1)
    2470:	f3 0f 1e fa          	endbr64 
    2474:	ff 25 86 4a 00 00    	jmp    *0x4a86(%rip)        # 6f00 <wattr_on@NCURSESW6_5.1.20000708>
    247a:	66 0f 1f 44 00 00    	nopw   0x0(%rax,%rax,1)
    2480:	f3 0f 1e fa          	endbr64 
    2484:	ff 25 7e 4a 00 00    	jmp    *0x4a7e(%rip)        # 6f08 <wrefresh@NCURSESW6_5.1.20000708>
    248a:	66 0f 1f 44 00 00    	nopw   0x0(%rax,%rax,1)
    2490:	f3 0f 1e fa          	endbr64 
    2494:	ff 25 76 4a 00 00    	jmp    *0x4a76(%rip)        # 6f10 <wclear@NCURSESW6_5.1.20000708>
    249a:	66 0f 1f 44 00 00    	nopw   0x0(%rax,%rax,1)
    24a0:	f3 0f 1e fa          	endbr64 
    24a4:	ff 25 6e 4a 00 00    	jmp    *0x4a6e(%rip)        # 6f18 <initscr@NCURSESW6_5.1.20000708>
    24aa:	66 0f 1f 44 00 00    	nopw   0x0(%rax,%rax,1)
    24b0:	f3 0f 1e fa          	endbr64 
    24b4:	ff 25 66 4a 00 00    	jmp    *0x4a66(%rip)        # 6f20 <isendwin@NCURSESW6_5.1.20000708>
    24ba:	66 0f 1f 44 00 00    	nopw   0x0(%rax,%rax,1)
    24c0:	f3 0f 1e fa          	endbr64 
    24c4:	ff 25 5e 4a 00 00    	jmp    *0x4a5e(%rip)        # 6f28 <gethostname@GLIBC_2.2.5>
    24ca:	66 0f 1f 44 00 00    	nopw   0x0(%rax,%rax,1)
    24d0:	f3 0f 1e fa          	endbr64 
    24d4:	ff 25 56 4a 00 00    	jmp    *0x4a56(%rip)        # 6f30 <wgetch@NCURSESW6_5.1.20000708>
    24da:	66 0f 1f 44 00 00    	nopw   0x0(%rax,%rax,1)
    24e0:	f3 0f 1e fa          	endbr64 
    24e4:	ff 25 4e 4a 00 00    	jmp    *0x4a4e(%rip)        # 6f38 <can_change_color@NCURSESW6_5.1.20000708>
    24ea:	66 0f 1f 44 00 00    	nopw   0x0(%rax,%rax,1)
    24f0:	f3 0f 1e fa          	endbr64 
    24f4:	ff 25 46 4a 00 00    	jmp    *0x4a46(%rip)        # 6f40 <endwin@NCURSESW6_5.1.20000708>
    24fa:	66 0f 1f 44 00 00    	nopw   0x0(%rax,%rax,1)
    2500:	f3 0f 1e fa          	endbr64 
    2504:	ff 25 3e 4a 00 00    	jmp    *0x4a3e(%rip)        # 6f48 <__stack_chk_fail@GLIBC_2.4>
    250a:	66 0f 1f 44 00 00    	nopw   0x0(%rax,%rax,1)
    2510:	f3 0f 1e fa          	endbr64 
    2514:	ff 25 36 4a 00 00    	jmp    *0x4a36(%rip)        # 6f50 <strcmp@GLIBC_2.2.5>
    251a:	66 0f 1f 44 00 00    	nopw   0x0(%rax,%rax,1)
    2520:	f3 0f 1e fa          	endbr64 
    2524:	ff 25 2e 4a 00 00    	jmp    *0x4a2e(%rip)        # 6f58 <srand@GLIBC_2.2.5>
    252a:	66 0f 1f 44 00 00    	nopw   0x0(%rax,%rax,1)
    2530:	f3 0f 1e fa          	endbr64 
    2534:	ff 25 26 4a 00 00    	jmp    *0x4a26(%rip)        # 6f60 <start_color@NCURSESW6_5.1.20000708>
    253a:	66 0f 1f 44 00 00    	nopw   0x0(%rax,%rax,1)
    2540:	f3 0f 1e fa          	endbr64 
    2544:	ff 25 1e 4a 00 00    	jmp    *0x4a1e(%rip)        # 6f68 <cbreak@NCURSES6_TINFO_5.0.19991023>
    254a:	66 0f 1f 44 00 00    	nopw   0x0(%rax,%rax,1)
    2550:	f3 0f 1e fa          	endbr64 
    2554:	ff 25 16 4a 00 00    	jmp    *0x4a16(%rip)        # 6f70 <fmod@GLIBC_2.38>
    255a:	66 0f 1f 44 00 00    	nopw   0x0(%rax,%rax,1)
    2560:	f3 0f 1e fa          	endbr64 
    2564:	ff 25 0e 4a 00 00    	jmp    *0x4a0e(%rip)        # 6f78 <printw@NCURSESW6_5.1.20000708>
    256a:	66 0f 1f 44 00 00    	nopw   0x0(%rax,%rax,1)
    2570:	f3 0f 1e fa          	endbr64 
    2574:	ff 25 06 4a 00 00    	jmp    *0x4a06(%rip)        # 6f80 <fwrite@GLIBC_2.2.5>
    257a:	66 0f 1f 44 00 00    	nopw   0x0(%rax,%rax,1)
    2580:	f3 0f 1e fa          	endbr64 
    2584:	ff 25 fe 49 00 00    	jmp    *0x49fe(%rip)        # 6f88 <setlocale@GLIBC_2.2.5>
    258a:	66 0f 1f 44 00 00    	nopw   0x0(%rax,%rax,1)
    2590:	f3 0f 1e fa          	endbr64 
    2594:	ff 25 f6 49 00 00    	jmp    *0x49f6(%rip)        # 6f90 <rand@GLIBC_2.2.5>
    259a:	66 0f 1f 44 00 00    	nopw   0x0(%rax,%rax,1)
    25a0:	f3 0f 1e fa          	endbr64 
    25a4:	ff 25 ee 49 00 00    	jmp    *0x49ee(%rip)        # 6f98 <napms@NCURSES6_TINFO_5.0.19991023>
    25aa:	66 0f 1f 44 00 00    	nopw   0x0(%rax,%rax,1)
    25b0:	f3 0f 1e fa          	endbr64 
    25b4:	ff 25 e6 49 00 00    	jmp    *0x49e6(%rip)        # 6fa0 <getmaxy@NCURSESW6_5.6.20061217>
    25ba:	66 0f 1f 44 00 00    	nopw   0x0(%rax,%rax,1)
    25c0:	f3 0f 1e fa          	endbr64 
    25c4:	ff 25 de 49 00 00    	jmp    *0x49de(%rip)        # 6fa8 <strftime@GLIBC_2.2.5>
    25ca:	66 0f 1f 44 00 00    	nopw   0x0(%rax,%rax,1)
    25d0:	f3 0f 1e fa          	endbr64 
    25d4:	ff 25 d6 49 00 00    	jmp    *0x49d6(%rip)        # 6fb0 <wattr_off@NCURSESW6_5.1.20000708>
    25da:	66 0f 1f 44 00 00    	nopw   0x0(%rax,%rax,1)
    25e0:	f3 0f 1e fa          	endbr64 
    25e4:	ff 25 ce 49 00 00    	jmp    *0x49ce(%rip)        # 6fb8 <popen@GLIBC_2.2.5>
    25ea:	66 0f 1f 44 00 00    	nopw   0x0(%rax,%rax,1)
    25f0:	f3 0f 1e fa          	endbr64 
    25f4:	ff 25 c6 49 00 00    	jmp    *0x49c6(%rip)        # 6fc0 <has_colors@NCURSESW6_5.1.20000708>
    25fa:	66 0f 1f 44 00 00    	nopw   0x0(%rax,%rax,1)
    2600:	f3 0f 1e fa          	endbr64 
    2604:	ff 25 be 49 00 00    	jmp    *0x49be(%rip)        # 6fc8 <time@GLIBC_2.2.5>
    260a:	66 0f 1f 44 00 00    	nopw   0x0(%rax,%rax,1)
    2610:	f3 0f 1e fa          	endbr64 
    2614:	ff 25 b6 49 00 00    	jmp    *0x49b6(%rip)        # 6fd0 <fflush@GLIBC_2.2.5>
    261a:	66 0f 1f 44 00 00    	nopw   0x0(%rax,%rax,1)

Disassembly of section .text:

0000000000002620 <_start>:
    2620:	f3 0f 1e fa          	endbr64 
    2624:	31 ed                	xor    %ebp,%ebp
    2626:	49 89 d1             	mov    %rdx,%r9
    2629:	5e                   	pop    %rsi
    262a:	48 89 e2             	mov    %rsp,%rdx
    262d:	48 83 e4 f0          	and    $0xfffffffffffffff0,%rsp
    2631:	50                   	push   %rax
    2632:	54                   	push   %rsp
    2633:	45 31 c0             	xor    %r8d,%r8d
    2636:	31 c9                	xor    %ecx,%ecx
    2638:	48 8d 3d ad 23 00 00 	lea    0x23ad(%rip),%rdi        # 49ec <main>
    263f:	ff 15 b3 49 00 00    	call   *0x49b3(%rip)        # 6ff8 <__libc_start_main@GLIBC_2.34>
    2645:	f4                   	hlt    
    2646:	66 2e 0f 1f 84 00 00 	cs nopw 0x0(%rax,%rax,1)
    264d:	00 00 00 

0000000000002650 <deregister_tm_clones>:
    2650:	48 8d 3d 49 4a 00 00 	lea    0x4a49(%rip),%rdi        # 70a0 <stdscr@NCURSES6_TINFO_5.0.19991023>
    2657:	48 8d 05 42 4a 00 00 	lea    0x4a42(%rip),%rax        # 70a0 <stdscr@NCURSES6_TINFO_5.0.19991023>
    265e:	48 39 f8             	cmp    %rdi,%rax
    2661:	74 15                	je     2678 <deregister_tm_clones+0x28>
    2663:	48 8b 05 76 49 00 00 	mov    0x4976(%rip),%rax        # 6fe0 <_ITM_deregisterTMCloneTable@Base>
    266a:	48 85 c0             	test   %rax,%rax
    266d:	74 09                	je     2678 <deregister_tm_clones+0x28>
    266f:	ff e0                	jmp    *%rax
    2671:	0f 1f 80 00 00 00 00 	nopl   0x0(%rax)
    2678:	c3                   	ret    
    2679:	0f 1f 80 00 00 00 00 	nopl   0x0(%rax)

0000000000002680 <register_tm_clones>:
    2680:	48 8d 3d 19 4a 00 00 	lea    0x4a19(%rip),%rdi        # 70a0 <stdscr@NCURSES6_TINFO_5.0.19991023>
    2687:	48 8d 35 12 4a 00 00 	lea    0x4a12(%rip),%rsi        # 70a0 <stdscr@NCURSES6_TINFO_5.0.19991023>
    268e:	48 29 fe             	sub    %rdi,%rsi
    2691:	48 89 f0             	mov    %rsi,%rax
    2694:	48 c1 ee 3f          	shr    $0x3f,%rsi
    2698:	48 c1 f8 03          	sar    $0x3,%rax
    269c:	48 01 c6             	add    %rax,%rsi
    269f:	48 d1 fe             	sar    %rsi
    26a2:	74 14                	je     26b8 <register_tm_clones+0x38>
    26a4:	48 8b 05 3d 49 00 00 	mov    0x493d(%rip),%rax        # 6fe8 <_ITM_registerTMCloneTable@Base>
    26ab:	48 85 c0             	test   %rax,%rax
    26ae:	74 08                	je     26b8 <register_tm_clones+0x38>
    26b0:	ff e0                	jmp    *%rax
    26b2:	66 0f 1f 44 00 00    	nopw   0x0(%rax,%rax,1)
    26b8:	c3                   	ret    
    26b9:	0f 1f 80 00 00 00 00 	nopl   0x0(%rax)

00000000000026c0 <__do_global_dtors_aux>:
    26c0:	f3 0f 1e fa          	endbr64 
    26c4:	80 3d e5 49 00 00 00 	cmpb   $0x0,0x49e5(%rip)        # 70b0 <completed.0>
    26cb:	75 2b                	jne    26f8 <__do_global_dtors_aux+0x38>
    26cd:	55                   	push   %rbp
    26ce:	48 83 3d 1a 49 00 00 	cmpq   $0x0,0x491a(%rip)        # 6ff0 <__cxa_finalize@GLIBC_2.2.5>
    26d5:	00 
    26d6:	48 89 e5             	mov    %rsp,%rbp
    26d9:	74 0c                	je     26e7 <__do_global_dtors_aux+0x27>
    26db:	48 8b 3d 26 49 00 00 	mov    0x4926(%rip),%rdi        # 7008 <__dso_handle>
    26e2:	e8 39 fc ff ff       	call   2320 <_init+0x320>
    26e7:	e8 64 ff ff ff       	call   2650 <deregister_tm_clones>
    26ec:	c6 05 bd 49 00 00 01 	movb   $0x1,0x49bd(%rip)        # 70b0 <completed.0>
    26f3:	5d                   	pop    %rbp
    26f4:	c3                   	ret    
    26f5:	0f 1f 00             	nopl   (%rax)
    26f8:	c3                   	ret    
    26f9:	0f 1f 80 00 00 00 00 	nopl   0x0(%rax)

0000000000002700 <frame_dummy>:
    2700:	f3 0f 1e fa          	endbr64 
    2704:	e9 77 ff ff ff       	jmp    2680 <register_tm_clones>

0000000000002709 <secret_report_honeypot>:
    2709:	f3 0f 1e fa          	endbr64 
    270d:	55                   	push   %rbp
    270e:	48 89 e5             	mov    %rsp,%rbp
    2711:	48 81 ec 00 10 00 00 	sub    $0x1000,%rsp
    2718:	48 83 0c 24 00       	orq    $0x0,(%rsp)
    271d:	48 81 ec 30 01 00 00 	sub    $0x130,%rsp
    2724:	64 48 8b 04 25 28 00 	mov    %fs:0x28,%rax
    272b:	00 00 
    272d:	48 89 45 f8          	mov    %rax,-0x8(%rbp)
    2731:	31 c0                	xor    %eax,%eax
    2733:	48 b8 55 6e 6b 6e 6f 	movabs $0x206e776f6e6b6e55,%rax
    273a:	77 6e 20 
    273d:	ba 4f 53 00 00       	mov    $0x534f,%edx
    2742:	48 89 85 f0 f2 ff ff 	mov    %rax,-0xd10(%rbp)
    2749:	48 89 95 f8 f2 ff ff 	mov    %rdx,-0xd08(%rbp)
    2750:	48 c7 85 00 f3 ff ff 	movq   $0x0,-0xd00(%rbp)
    2757:	00 00 00 00 
    275b:	48 c7 85 08 f3 ff ff 	movq   $0x0,-0xcf8(%rbp)
    2762:	00 00 00 00 
    2766:	48 c7 85 10 f3 ff ff 	movq   $0x0,-0xcf0(%rbp)
    276d:	00 00 00 00 
    2771:	48 c7 85 18 f3 ff ff 	movq   $0x0,-0xce8(%rbp)
    2778:	00 00 00 00 
    277c:	48 c7 85 20 f3 ff ff 	movq   $0x0,-0xce0(%rbp)
    2783:	00 00 00 00 
    2787:	48 c7 85 28 f3 ff ff 	movq   $0x0,-0xcd8(%rbp)
    278e:	00 00 00 00 
    2792:	48 c7 85 30 f3 ff ff 	movq   $0x0,-0xcd0(%rbp)
    2799:	00 00 00 00 
    279d:	48 c7 85 38 f3 ff ff 	movq   $0x0,-0xcc8(%rbp)
    27a4:	00 00 00 00 
    27a8:	48 c7 85 40 f3 ff ff 	movq   $0x0,-0xcc0(%rbp)
    27af:	00 00 00 00 
    27b3:	48 c7 85 48 f3 ff ff 	movq   $0x0,-0xcb8(%rbp)
    27ba:	00 00 00 00 
    27be:	48 c7 85 50 f3 ff ff 	movq   $0x0,-0xcb0(%rbp)
    27c5:	00 00 00 00 
    27c9:	48 c7 85 58 f3 ff ff 	movq   $0x0,-0xca8(%rbp)
    27d0:	00 00 00 00 
    27d4:	48 c7 85 60 f3 ff ff 	movq   $0x0,-0xca0(%rbp)
    27db:	00 00 00 00 
    27df:	48 c7 85 68 f3 ff ff 	movq   $0x0,-0xc98(%rbp)
    27e6:	00 00 00 00 
    27ea:	48 c7 85 70 f3 ff ff 	movq   $0x0,-0xc90(%rbp)
    27f1:	00 00 00 00 
    27f5:	48 c7 85 78 f3 ff ff 	movq   $0x0,-0xc88(%rbp)
    27fc:	00 00 00 00 
    2800:	48 c7 85 80 f3 ff ff 	movq   $0x0,-0xc80(%rbp)
    2807:	00 00 00 00 
    280b:	48 c7 85 88 f3 ff ff 	movq   $0x0,-0xc78(%rbp)
    2812:	00 00 00 00 
    2816:	48 c7 85 90 f3 ff ff 	movq   $0x0,-0xc70(%rbp)
    281d:	00 00 00 00 
    2821:	48 c7 85 98 f3 ff ff 	movq   $0x0,-0xc68(%rbp)
    2828:	00 00 00 00 
    282c:	48 c7 85 a0 f3 ff ff 	movq   $0x0,-0xc60(%rbp)
    2833:	00 00 00 00 
    2837:	48 c7 85 a8 f3 ff ff 	movq   $0x0,-0xc58(%rbp)
    283e:	00 00 00 00 
    2842:	48 c7 85 b0 f3 ff ff 	movq   $0x0,-0xc50(%rbp)
    2849:	00 00 00 00 
    284d:	48 c7 85 b8 f3 ff ff 	movq   $0x0,-0xc48(%rbp)
    2854:	00 00 00 00 
    2858:	48 c7 85 c0 f3 ff ff 	movq   $0x0,-0xc40(%rbp)
    285f:	00 00 00 00 
    2863:	48 c7 85 c8 f3 ff ff 	movq   $0x0,-0xc38(%rbp)
    286a:	00 00 00 00 
    286e:	48 c7 85 d0 f3 ff ff 	movq   $0x0,-0xc30(%rbp)
    2875:	00 00 00 00 
    2879:	48 c7 85 d8 f3 ff ff 	movq   $0x0,-0xc28(%rbp)
    2880:	00 00 00 00 
    2884:	48 c7 85 e0 f3 ff ff 	movq   $0x0,-0xc20(%rbp)
    288b:	00 00 00 00 
    288f:	48 c7 85 e8 f3 ff ff 	movq   $0x0,-0xc18(%rbp)
    2896:	00 00 00 00 
    289a:	48 b8 55 6e 6b 6e 6f 	movabs $0x206e776f6e6b6e55,%rax
    28a1:	77 6e 20 
    28a4:	ba 48 6f 73 74       	mov    $0x74736f48,%edx
    28a9:	48 89 85 70 f2 ff ff 	mov    %rax,-0xd90(%rbp)
    28b0:	48 89 95 78 f2 ff ff 	mov    %rdx,-0xd88(%rbp)
    28b7:	48 c7 85 80 f2 ff ff 	movq   $0x0,-0xd80(%rbp)
    28be:	00 00 00 00 
    28c2:	48 c7 85 88 f2 ff ff 	movq   $0x0,-0xd78(%rbp)
    28c9:	00 00 00 00 
    28cd:	48 c7 85 90 f2 ff ff 	movq   $0x0,-0xd70(%rbp)
    28d4:	00 00 00 00 
    28d8:	48 c7 85 98 f2 ff ff 	movq   $0x0,-0xd68(%rbp)
    28df:	00 00 00 00 
    28e3:	48 c7 85 a0 f2 ff ff 	movq   $0x0,-0xd60(%rbp)
    28ea:	00 00 00 00 
    28ee:	48 c7 85 a8 f2 ff ff 	movq   $0x0,-0xd58(%rbp)
    28f5:	00 00 00 00 
    28f9:	48 c7 85 b0 f2 ff ff 	movq   $0x0,-0xd50(%rbp)
    2900:	00 00 00 00 
    2904:	48 c7 85 b8 f2 ff ff 	movq   $0x0,-0xd48(%rbp)
    290b:	00 00 00 00 
    290f:	48 c7 85 c0 f2 ff ff 	movq   $0x0,-0xd40(%rbp)
    2916:	00 00 00 00 
    291a:	48 c7 85 c8 f2 ff ff 	movq   $0x0,-0xd38(%rbp)
    2921:	00 00 00 00 
    2925:	48 c7 85 d0 f2 ff ff 	movq   $0x0,-0xd30(%rbp)
    292c:	00 00 00 00 
    2930:	48 c7 85 d8 f2 ff ff 	movq   $0x0,-0xd28(%rbp)
    2937:	00 00 00 00 
    293b:	48 c7 85 e0 f2 ff ff 	movq   $0x0,-0xd20(%rbp)
    2942:	00 00 00 00 
    2946:	48 c7 85 e8 f2 ff ff 	movq   $0x0,-0xd18(%rbp)
    294d:	00 00 00 00 
    2951:	48 8d 85 00 ef ff ff 	lea    -0x1100(%rbp),%rax
    2958:	48 89 c7             	mov    %rax,%rdi
    295b:	e8 60 fa ff ff       	call   23c0 <_init+0x3c0>
    2960:	85 c0                	test   %eax,%eax
    2962:	75 6b                	jne    29cf <secret_report_honeypot+0x2c6>
    2964:	48 8d 85 00 ef ff ff 	lea    -0x1100(%rbp),%rax
    296b:	48 8d 88 82 00 00 00 	lea    0x82(%rax),%rcx
    2972:	48 8d 95 00 ef ff ff 	lea    -0x1100(%rbp),%rdx
    2979:	48 8d 85 f0 f2 ff ff 	lea    -0xd10(%rbp),%rax
    2980:	49 89 c8             	mov    %rcx,%r8
    2983:	48 89 d1             	mov    %rdx,%rcx
    2986:	48 8d 15 c7 27 00 00 	lea    0x27c7(%rip),%rdx        # 5154 <game_height+0x4>
    298d:	be 00 01 00 00       	mov    $0x100,%esi
    2992:	48 89 c7             	mov    %rax,%rdi
    2995:	b8 00 00 00 00       	mov    $0x0,%eax
    299a:	e8 b1 f9 ff ff       	call   2350 <_init+0x350>
    299f:	48 8d 85 00 ef ff ff 	lea    -0x1100(%rbp),%rax
    29a6:	48 8d 50 41          	lea    0x41(%rax),%rdx
    29aa:	48 8d 85 70 f2 ff ff 	lea    -0xd90(%rbp),%rax
    29b1:	48 89 d1             	mov    %rdx,%rcx
    29b4:	48 8d 15 9f 27 00 00 	lea    0x279f(%rip),%rdx        # 515a <game_height+0xa>
    29bb:	be 80 00 00 00       	mov    $0x80,%esi
    29c0:	48 89 c7             	mov    %rax,%rdi
    29c3:	b8 00 00 00 00       	mov    $0x0,%eax
    29c8:	e8 83 f9 ff ff       	call   2350 <_init+0x350>
    29cd:	eb 14                	jmp    29e3 <secret_report_honeypot+0x2da>
    29cf:	48 8d 85 70 f2 ff ff 	lea    -0xd90(%rbp),%rax
    29d6:	be 80 00 00 00       	mov    $0x80,%esi
    29db:	48 89 c7             	mov    %rax,%rdi
    29de:	e8 dd fa ff ff       	call   24c0 <_init+0x4c0>
    29e3:	bf 00 00 00 00       	mov    $0x0,%edi
    29e8:	e8 13 fc ff ff       	call   2600 <_init+0x600>
    29ed:	48 89 85 e8 ee ff ff 	mov    %rax,-0x1118(%rbp)
    29f4:	48 8b 85 e8 ee ff ff 	mov    -0x1118(%rbp),%rax
    29fb:	48 05 70 62 00 00    	add    $0x6270,%rax
    2a01:	48 89 85 e0 ee ff ff 	mov    %rax,-0x1120(%rbp)
    2a08:	48 8d 85 e0 ee ff ff 	lea    -0x1120(%rbp),%rax
    2a0f:	48 89 c7             	mov    %rax,%rdi
    2a12:	e8 09 fa ff ff       	call   2420 <_init+0x420>
    2a17:	48 89 85 f0 ee ff ff 	mov    %rax,-0x1110(%rbp)
    2a1e:	48 83 bd f0 ee ff ff 	cmpq   $0x0,-0x1110(%rbp)
    2a25:	00 
    2a26:	74 27                	je     2a4f <secret_report_honeypot+0x346>
    2a28:	48 8b 95 f0 ee ff ff 	mov    -0x1110(%rbp),%rdx
    2a2f:	48 8d 85 30 f2 ff ff 	lea    -0xdd0(%rbp),%rax
    2a36:	48 89 d1             	mov    %rdx,%rcx
    2a39:	48 8d 15 1d 27 00 00 	lea    0x271d(%rip),%rdx        # 515d <game_height+0xd>
    2a40:	be 40 00 00 00       	mov    $0x40,%esi
    2a45:	48 89 c7             	mov    %rax,%rdi
    2a48:	e8 73 fb ff ff       	call   25c0 <_init+0x5c0>
    2a4d:	eb 20                	jmp    2a6f <secret_report_honeypot+0x366>
    2a4f:	48 8d 85 30 f2 ff ff 	lea    -0xdd0(%rbp),%rax
    2a56:	48 8d 15 18 27 00 00 	lea    0x2718(%rip),%rdx        # 5175 <game_height+0x25>
    2a5d:	be 40 00 00 00       	mov    $0x40,%esi
    2a62:	48 89 c7             	mov    %rax,%rdi
    2a65:	b8 00 00 00 00       	mov    $0x0,%eax
    2a6a:	e8 e1 f8 ff ff       	call   2350 <_init+0x350>
    2a6f:	48 b8 32 2e 2e 2a 29 	movabs $0x757560292a2e2e32,%rax
    2a76:	60 75 75 
    2a79:	48 ba 3b 2a 2a 74 34 	movabs $0x31313334742a2a3b,%rdx
    2a80:	33 31 31 
    2a83:	48 89 85 d0 f0 ff ff 	mov    %rax,-0xf30(%rbp)
    2a8a:	48 89 95 d8 f0 ff ff 	mov    %rdx,-0xf28(%rbp)
    2a91:	48 b8 35 74 33 3e 75 	movabs $0x332a3b753e337435,%rax
    2a98:	3b 2a 33 
    2a9b:	48 ba 75 32 75 2e 28 	movabs $0x2a2a3b282e753275,%rdx
    2aa2:	3b 2a 2a 
    2aa5:	48 89 85 e0 f0 ff ff 	mov    %rax,-0xf20(%rbp)
    2aac:	48 89 95 e8 f0 ff ff 	mov    %rdx,-0xf18(%rbp)
    2ab3:	48 b8 2a 2a 33 34 3d 	movabs $0x3429773d34332a2a,%rax
    2aba:	77 29 34 
    2abd:	48 ba 3b 31 3f 77 3d 	movabs $0x3f373b3d773f313b,%rdx
    2ac4:	3b 37 3f 
    2ac7:	48 89 85 ee f0 ff ff 	mov    %rax,-0xf12(%rbp)
    2ace:	48 89 95 f6 f0 ff ff 	mov    %rdx,-0xf0a(%rbp)
    2ad5:	48 b8 21 78 35 29 78 	movabs $0x7f78607829357821,%rax
    2adc:	60 78 7f 
    2adf:	48 ba 29 78 76 78 32 	movabs $0x2e29353278767829,%rdx
    2ae6:	35 29 2e 
    2ae9:	48 89 85 70 f1 ff ff 	mov    %rax,-0xe90(%rbp)
    2af0:	48 89 95 78 f1 ff ff 	mov    %rdx,-0xe88(%rbp)
    2af7:	48 b8 34 3b 37 3f 78 	movabs $0x7f7860783f373b34,%rax
    2afe:	60 78 7f 
    2b01:	48 ba 29 78 76 78 2e 	movabs $0x3f37332e78767829,%rdx
    2b08:	33 37 3f 
    2b0b:	48 89 85 80 f1 ff ff 	mov    %rax,-0xe80(%rbp)
    2b12:	48 89 95 88 f1 ff ff 	mov    %rdx,-0xe78(%rbp)
    2b19:	48 b8 78 60 78 7f 29 	movabs $0x787678297f786078,%rax
    2b20:	78 76 78 
    2b23:	48 ba 34 3b 37 3f 78 	movabs $0x7f7860783f373b34,%rdx
    2b2a:	60 78 7f 
    2b2d:	48 89 85 90 f1 ff ff 	mov    %rax,-0xe70(%rbp)
    2b34:	48 89 95 98 f1 ff ff 	mov    %rdx,-0xe68(%rbp)
    2b3b:	c7 85 9f f1 ff ff 7f 	movl   $0x2778297f,-0xe61(%rbp)
    2b42:	29 78 27 
    2b45:	48 b8 19 35 34 2e 3f 	movabs $0x772e343f2e343519,%rax
    2b4c:	34 2e 77 
    2b4f:	48 ba 0e 23 2a 3f 60 	movabs $0x2a3b7a603f2a230e,%rdx
    2b56:	7a 3b 2a 
    2b59:	48 89 85 90 f0 ff ff 	mov    %rax,-0xf70(%rbp)
    2b60:	48 89 95 98 f0 ff ff 	mov    %rdx,-0xf68(%rbp)
    2b67:	48 b8 3b 2a 2a 36 33 	movabs $0x2e3b3933362a2a3b,%rax
    2b6e:	39 3b 2e 
    2b71:	48 ba 33 35 34 75 30 	movabs $0x3435293075343533,%rdx
    2b78:	29 35 34 
    2b7b:	48 89 85 9e f0 ff ff 	mov    %rax,-0xf62(%rbp)
    2b82:	48 89 95 a6 f0 ff ff 	mov    %rdx,-0xf5a(%rbp)
    2b89:	48 b8 39 2f 28 36 7a 	movabs $0x7a29777a36282f39,%rax
    2b90:	77 29 7a 
    2b93:	48 ba 77 02 7a 0a 15 	movabs $0x7a0e09150a7a0277,%rdx
    2b9a:	09 0e 7a 
    2b9d:	48 89 85 30 f1 ff ff 	mov    %rax,-0xed0(%rbp)
    2ba4:	48 89 95 38 f1 ff ff 	mov    %rdx,-0xec8(%rbp)
    2bab:	48 b8 77 12 7a 78 7f 	movabs $0x7a78297f787a1277,%rax
    2bb2:	29 78 7a 
    2bb5:	48 ba 77 3e 7a 1a 77 	movabs $0x7f787a771a7a3e77,%rdx
    2bbc:	7a 78 7f 
    2bbf:	48 89 85 40 f1 ff ff 	mov    %rax,-0xec0(%rbp)
    2bc6:	48 89 95 48 f1 ff ff 	mov    %rdx,-0xeb8(%rbp)
    2bcd:	48 b8 29 78 7a 64 75 	movabs $0x2c3f3e75647a7829,%rax
    2bd4:	3e 3f 2c 
    2bd7:	48 ba 75 34 2f 36 36 	movabs $0x64687a36362f3475,%rdx
    2bde:	7a 68 64 
    2be1:	48 89 85 50 f1 ff ff 	mov    %rax,-0xeb0(%rbp)
    2be8:	48 89 95 58 f1 ff ff 	mov    %rdx,-0xea8(%rbp)
    2bef:	66 c7 85 60 f1 ff ff 	movw   $0x6b7c,-0xea0(%rbp)
    2bf6:	7c 6b 
    2bf8:	c7 85 d0 ee ff ff 00 	movl   $0x0,-0x1130(%rbp)
    2bff:	00 00 00 
    2c02:	eb 2b                	jmp    2c2f <secret_report_honeypot+0x526>
    2c04:	8b 85 d0 ee ff ff    	mov    -0x1130(%rbp),%eax
    2c0a:	48 98                	cltq   
    2c0c:	0f b6 84 05 d0 f0 ff 	movzbl -0xf30(%rbp,%rax,1),%eax
    2c13:	ff 
    2c14:	83 f0 5a             	xor    $0x5a,%eax
    2c17:	89 c2                	mov    %eax,%edx
    2c19:	8b 85 d0 ee ff ff    	mov    -0x1130(%rbp),%eax
    2c1f:	48 98                	cltq   
    2c21:	88 94 05 00 f1 ff ff 	mov    %dl,-0xf00(%rbp,%rax,1)
    2c28:	83 85 d0 ee ff ff 01 	addl   $0x1,-0x1130(%rbp)
    2c2f:	83 bd d0 ee ff ff 2d 	cmpl   $0x2d,-0x1130(%rbp)
    2c36:	7e cc                	jle    2c04 <secret_report_honeypot+0x4fb>
    2c38:	c6 85 2e f1 ff ff 00 	movb   $0x0,-0xed2(%rbp)
    2c3f:	c7 85 d4 ee ff ff 00 	movl   $0x0,-0x112c(%rbp)
    2c46:	00 00 00 
    2c49:	eb 2b                	jmp    2c76 <secret_report_honeypot+0x56d>
    2c4b:	8b 85 d4 ee ff ff    	mov    -0x112c(%rbp),%eax
    2c51:	48 98                	cltq   
    2c53:	0f b6 84 05 70 f1 ff 	movzbl -0xe90(%rbp,%rax,1),%eax
    2c5a:	ff 
    2c5b:	83 f0 5a             	xor    $0x5a,%eax
    2c5e:	89 c2                	mov    %eax,%edx
    2c60:	8b 85 d4 ee ff ff    	mov    -0x112c(%rbp),%eax
    2c66:	48 98                	cltq   
    2c68:	88 94 05 f0 f1 ff ff 	mov    %dl,-0xe10(%rbp,%rax,1)
    2c6f:	83 85 d4 ee ff ff 01 	addl   $0x1,-0x112c(%rbp)
    2c76:	83 bd d4 ee ff ff 32 	cmpl   $0x32,-0x112c(%rbp)
    2c7d:	7e cc                	jle    2c4b <secret_report_honeypot+0x542>
    2c7f:	c6 85 23 f2 ff ff 00 	movb   $0x0,-0xddd(%rbp)
    2c86:	c7 85 d8 ee ff ff 00 	movl   $0x0,-0x1128(%rbp)
    2c8d:	00 00 00 
    2c90:	eb 2b                	jmp    2cbd <secret_report_honeypot+0x5b4>
    2c92:	8b 85 d8 ee ff ff    	mov    -0x1128(%rbp),%eax
    2c98:	48 98                	cltq   
    2c9a:	0f b6 84 05 90 f0 ff 	movzbl -0xf70(%rbp,%rax,1),%eax
    2ca1:	ff 
    2ca2:	83 f0 5a             	xor    $0x5a,%eax
    2ca5:	89 c2                	mov    %eax,%edx
    2ca7:	8b 85 d8 ee ff ff    	mov    -0x1128(%rbp),%eax
    2cad:	48 98                	cltq   
    2caf:	88 94 05 b0 f0 ff ff 	mov    %dl,-0xf50(%rbp,%rax,1)
    2cb6:	83 85 d8 ee ff ff 01 	addl   $0x1,-0x1128(%rbp)
    2cbd:	83 bd d8 ee ff ff 1d 	cmpl   $0x1d,-0x1128(%rbp)
    2cc4:	7e cc                	jle    2c92 <secret_report_honeypot+0x589>
    2cc6:	c6 85 ce f0 ff ff 00 	movb   $0x0,-0xf32(%rbp)
    2ccd:	c7 85 dc ee ff ff 00 	movl   $0x0,-0x1124(%rbp)
    2cd4:	00 00 00 
    2cd7:	eb 2b                	jmp    2d04 <secret_report_honeypot+0x5fb>
    2cd9:	8b 85 dc ee ff ff    	mov    -0x1124(%rbp),%eax
    2cdf:	48 98                	cltq   
    2ce1:	0f b6 84 05 30 f1 ff 	movzbl -0xed0(%rbp,%rax,1),%eax
    2ce8:	ff 
    2ce9:	83 f0 5a             	xor    $0x5a,%eax
    2cec:	89 c2                	mov    %eax,%edx
    2cee:	8b 85 dc ee ff ff    	mov    -0x1124(%rbp),%eax
    2cf4:	48 98                	cltq   
    2cf6:	88 94 05 b0 f1 ff ff 	mov    %dl,-0xe50(%rbp,%rax,1)
    2cfd:	83 85 dc ee ff ff 01 	addl   $0x1,-0x1124(%rbp)
    2d04:	83 bd dc ee ff ff 31 	cmpl   $0x31,-0x1124(%rbp)
    2d0b:	7e cc                	jle    2cd9 <secret_report_honeypot+0x5d0>
    2d0d:	c6 85 e2 f1 ff ff 00 	movb   $0x0,-0xe1e(%rbp)
    2d14:	4c 8d 85 30 f2 ff ff 	lea    -0xdd0(%rbp),%r8
    2d1b:	48 8d bd 70 f2 ff ff 	lea    -0xd90(%rbp),%rdi
    2d22:	48 8d 8d f0 f2 ff ff 	lea    -0xd10(%rbp),%rcx
    2d29:	48 8d 95 f0 f1 ff ff 	lea    -0xe10(%rbp),%rdx
    2d30:	48 8d 85 f0 f3 ff ff 	lea    -0xc10(%rbp),%rax
    2d37:	48 83 ec 08          	sub    $0x8,%rsp
    2d3b:	48 8d 35 1e 43 00 00 	lea    0x431e(%rip),%rsi        # 7060 <player_name>
    2d42:	56                   	push   %rsi
    2d43:	4d 89 c1             	mov    %r8,%r9
    2d46:	49 89 f8             	mov    %rdi,%r8
    2d49:	be 00 04 00 00       	mov    $0x400,%esi
    2d4e:	48 89 c7             	mov    %rax,%rdi
    2d51:	b8 00 00 00 00       	mov    $0x0,%eax
    2d56:	e8 f5 f5 ff ff       	call   2350 <_init+0x350>
    2d5b:	48 83 c4 10          	add    $0x10,%rsp
    2d5f:	48 8d b5 00 f1 ff ff 	lea    -0xf00(%rbp),%rsi
    2d66:	48 8d 8d b0 f0 ff ff 	lea    -0xf50(%rbp),%rcx
    2d6d:	48 8d 95 b0 f1 ff ff 	lea    -0xe50(%rbp),%rdx
    2d74:	48 8d 85 f0 f7 ff ff 	lea    -0x810(%rbp),%rax
    2d7b:	49 89 f0             	mov    %rsi,%r8
    2d7e:	be 00 08 00 00       	mov    $0x800,%esi
    2d83:	48 89 c7             	mov    %rax,%rdi
    2d86:	b8 00 00 00 00       	mov    $0x0,%eax
    2d8b:	e8 c0 f5 ff ff       	call   2350 <_init+0x350>
    2d90:	48 8d 85 f0 f7 ff ff 	lea    -0x810(%rbp),%rax
    2d97:	48 8d 15 e4 23 00 00 	lea    0x23e4(%rip),%rdx        # 5182 <game_height+0x32>
    2d9e:	48 89 d6             	mov    %rdx,%rsi
    2da1:	48 89 c7             	mov    %rax,%rdi
    2da4:	e8 37 f8 ff ff       	call   25e0 <_init+0x5e0>
    2da9:	48 89 85 f8 ee ff ff 	mov    %rax,-0x1108(%rbp)
    2db0:	48 83 bd f8 ee ff ff 	cmpq   $0x0,-0x1108(%rbp)
    2db7:	00 
    2db8:	74 42                	je     2dfc <secret_report_honeypot+0x6f3>
    2dba:	48 8d 85 f0 f3 ff ff 	lea    -0xc10(%rbp),%rax
    2dc1:	48 89 c7             	mov    %rax,%rdi
    2dc4:	e8 77 f6 ff ff       	call   2440 <_init+0x440>
    2dc9:	48 89 c6             	mov    %rax,%rsi
    2dcc:	48 8b 95 f8 ee ff ff 	mov    -0x1108(%rbp),%rdx
    2dd3:	48 8d 85 f0 f3 ff ff 	lea    -0xc10(%rbp),%rax
    2dda:	48 89 d1             	mov    %rdx,%rcx
    2ddd:	48 89 f2             	mov    %rsi,%rdx
    2de0:	be 01 00 00 00       	mov    $0x1,%esi
    2de5:	48 89 c7             	mov    %rax,%rdi
    2de8:	e8 83 f7 ff ff       	call   2570 <_init+0x570>
    2ded:	48 8b 85 f8 ee ff ff 	mov    -0x1108(%rbp),%rax
    2df4:	48 89 c7             	mov    %rax,%rdi
    2df7:	e8 54 f6 ff ff       	call   2450 <_init+0x450>
    2dfc:	90                   	nop
    2dfd:	48 8b 45 f8          	mov    -0x8(%rbp),%rax
    2e01:	64 48 2b 04 25 28 00 	sub    %fs:0x28,%rax
    2e08:	00 00 
    2e0a:	74 05                	je     2e11 <secret_report_honeypot+0x708>
    2e0c:	e8 ef f6 ff ff       	call   2500 <_init+0x500>
    2e11:	c9                   	leave  
    2e12:	c3                   	ret    

0000000000002e13 <Winner_price>:
    2e13:	f3 0f 1e fa          	endbr64 
    2e17:	55                   	push   %rbp
    2e18:	48 89 e5             	mov    %rsp,%rbp
    2e1b:	48 81 ec 80 01 00 00 	sub    $0x180,%rsp
    2e22:	64 48 8b 04 25 28 00 	mov    %fs:0x28,%rax
    2e29:	00 00 
    2e2b:	48 89 45 f8          	mov    %rax,-0x8(%rbp)
    2e2f:	31 c0                	xor    %eax,%eax
    2e31:	8b 05 89 42 00 00    	mov    0x4289(%rip),%eax        # 70c0 <player_score>
    2e37:	3d 10 27 00 00       	cmp    $0x2710,%eax
    2e3c:	75 3c                	jne    2e7a <Winner_price+0x67>
    2e3e:	8b 05 80 42 00 00    	mov    0x4280(%rip),%eax        # 70c4 <verified_score>
    2e44:	3d 10 27 00 00       	cmp    $0x2710,%eax
    2e49:	75 2f                	jne    2e7a <Winner_price+0x67>
    2e4b:	48 8d 05 0e 42 00 00 	lea    0x420e(%rip),%rax        # 7060 <player_name>
    2e52:	0f b6 00             	movzbl (%rax),%eax
    2e55:	84 c0                	test   %al,%al
    2e57:	74 21                	je     2e7a <Winner_price+0x67>
    2e59:	48 8d 05 24 23 00 00 	lea    0x2324(%rip),%rax        # 5184 <game_height+0x34>
    2e60:	48 89 c6             	mov    %rax,%rsi
    2e63:	48 8d 05 f6 41 00 00 	lea    0x41f6(%rip),%rax        # 7060 <player_name>
    2e6a:	48 89 c7             	mov    %rax,%rdi
    2e6d:	e8 9e f6 ff ff       	call   2510 <_init+0x510>
    2e72:	85 c0                	test   %eax,%eax
    2e74:	0f 85 aa 00 00 00    	jne    2f24 <Winner_price+0x111>
    2e7a:	48 8b 05 1f 42 00 00 	mov    0x421f(%rip),%rax        # 70a0 <stdscr@NCURSES6_TINFO_5.0.19991023>
    2e81:	48 85 c0             	test   %rax,%rax
    2e84:	74 11                	je     2e97 <Winner_price+0x84>
    2e86:	e8 25 f6 ff ff       	call   24b0 <_init+0x4b0>
    2e8b:	83 f0 01             	xor    $0x1,%eax
    2e8e:	84 c0                	test   %al,%al
    2e90:	74 05                	je     2e97 <Winner_price+0x84>
    2e92:	e8 59 f6 ff ff       	call   24f0 <_init+0x4f0>
    2e97:	48 8d 05 f2 22 00 00 	lea    0x22f2(%rip),%rax        # 5190 <game_height+0x40>
    2e9e:	48 89 c7             	mov    %rax,%rdi
    2ea1:	e8 0a f5 ff ff       	call   23b0 <_init+0x3b0>
    2ea6:	48 8d 05 13 23 00 00 	lea    0x2313(%rip),%rax        # 51c0 <game_height+0x70>
    2ead:	48 89 c7             	mov    %rax,%rdi
    2eb0:	e8 fb f4 ff ff       	call   23b0 <_init+0x3b0>
    2eb5:	8b 05 05 42 00 00    	mov    0x4205(%rip),%eax        # 70c0 <player_score>
    2ebb:	89 c6                	mov    %eax,%esi
    2ebd:	48 8d 05 43 23 00 00 	lea    0x2343(%rip),%rax        # 5207 <game_height+0xb7>
    2ec4:	48 89 c7             	mov    %rax,%rdi
    2ec7:	b8 00 00 00 00       	mov    $0x0,%eax
    2ecc:	e8 6f f4 ff ff       	call   2340 <_init+0x340>
    2ed1:	8b 05 ed 41 00 00    	mov    0x41ed(%rip),%eax        # 70c4 <verified_score>
    2ed7:	89 c6                	mov    %eax,%esi
    2ed9:	48 8d 05 3c 23 00 00 	lea    0x233c(%rip),%rax        # 521c <game_height+0xcc>
    2ee0:	48 89 c7             	mov    %rax,%rdi
    2ee3:	b8 00 00 00 00       	mov    $0x0,%eax
    2ee8:	e8 53 f4 ff ff       	call   2340 <_init+0x340>
    2eed:	48 8d 05 6c 41 00 00 	lea    0x416c(%rip),%rax        # 7060 <player_name>
    2ef4:	48 89 c6             	mov    %rax,%rsi
    2ef7:	48 8d 05 33 23 00 00 	lea    0x2333(%rip),%rax        # 5231 <game_height+0xe1>
    2efe:	48 89 c7             	mov    %rax,%rdi
    2f01:	b8 00 00 00 00       	mov    $0x0,%eax
    2f06:	e8 35 f4 ff ff       	call   2340 <_init+0x340>
    2f0b:	48 8b 05 96 41 00 00 	mov    0x4196(%rip),%rax        # 70a8 <stdout@GLIBC_2.2.5>
    2f12:	48 89 c7             	mov    %rax,%rdi
    2f15:	e8 f6 f6 ff ff       	call   2610 <_init+0x610>
    2f1a:	bf 01 00 00 00       	mov    $0x1,%edi
    2f1f:	e8 ac f4 ff ff       	call   23d0 <_init+0x3d0>
    2f24:	48 8b 05 75 41 00 00 	mov    0x4175(%rip),%rax        # 70a0 <stdscr@NCURSES6_TINFO_5.0.19991023>
    2f2b:	48 85 c0             	test   %rax,%rax
    2f2e:	74 11                	je     2f41 <Winner_price+0x12e>
    2f30:	e8 7b f5 ff ff       	call   24b0 <_init+0x4b0>
    2f35:	83 f0 01             	xor    $0x1,%eax
    2f38:	84 c0                	test   %al,%al
    2f3a:	74 05                	je     2f41 <Winner_price+0x12e>
    2f3c:	e8 af f5 ff ff       	call   24f0 <_init+0x4f0>
    2f41:	f2 0f 10 05 27 29 00 	movsd  0x2927(%rip),%xmm0        # 5870 <game_height+0x720>
    2f48:	00 
    2f49:	f2 0f 11 85 a8 fe ff 	movsd  %xmm0,-0x158(%rbp)
    2f50:	ff 
    2f51:	f2 0f 10 05 1f 29 00 	movsd  0x291f(%rip),%xmm0        # 5878 <game_height+0x728>
    2f58:	00 
    2f59:	f2 0f 11 85 b0 fe ff 	movsd  %xmm0,-0x150(%rbp)
    2f60:	ff 
    2f61:	c7 85 88 fe ff ff 00 	movl   $0x0,-0x178(%rbp)
    2f68:	00 00 00 
    2f6b:	e9 bf 00 00 00       	jmp    302f <Winner_price+0x21c>
    2f70:	f2 0f 10 85 b0 fe ff 	movsd  -0x150(%rbp),%xmm0
    2f77:	ff 
    2f78:	66 0f 28 c8          	movapd %xmm0,%xmm1
    2f7c:	f2 0f 59 8d a8 fe ff 	mulsd  -0x158(%rbp),%xmm1
    2f83:	ff 
    2f84:	f2 0f 10 05 f4 28 00 	movsd  0x28f4(%rip),%xmm0        # 5880 <game_height+0x730>
    2f8b:	00 
    2f8c:	f2 0f 5c 85 a8 fe ff 	subsd  -0x158(%rbp),%xmm0
    2f93:	ff 
    2f94:	f2 0f 59 c1          	mulsd  %xmm1,%xmm0
    2f98:	f2 0f 11 85 a8 fe ff 	movsd  %xmm0,-0x158(%rbp)
    2f9f:	ff 
    2fa0:	f2 0f 10 85 a8 fe ff 	movsd  -0x158(%rbp),%xmm0
    2fa7:	ff 
    2fa8:	f3 0f 7e 0d e0 28 00 	movq   0x28e0(%rip),%xmm1        # 5890 <game_height+0x740>
    2faf:	00 
    2fb0:	66 0f 54 c8          	andpd  %xmm0,%xmm1
    2fb4:	f2 0f 10 05 e4 28 00 	movsd  0x28e4(%rip),%xmm0        # 58a0 <game_height+0x750>
    2fbb:	00 
    2fbc:	f2 0f 59 c1          	mulsd  %xmm1,%xmm0
    2fc0:	f2 0f 11 85 b8 fe ff 	movsd  %xmm0,-0x148(%rbp)
    2fc7:	ff 
    2fc8:	f2 0f 10 05 d8 28 00 	movsd  0x28d8(%rip),%xmm0        # 58a8 <game_height+0x758>
    2fcf:	00 
    2fd0:	48 8b 85 b8 fe ff ff 	mov    -0x148(%rbp),%rax
    2fd7:	66 0f 28 c8          	movapd %xmm0,%xmm1
    2fdb:	66 48 0f 6e c0       	movq   %rax,%xmm0
    2fe0:	e8 6b f5 ff ff       	call   2550 <_init+0x550>
    2fe5:	f2 48 0f 2c c0       	cvttsd2si %xmm0,%rax
    2fea:	89 85 a4 fe ff ff    	mov    %eax,-0x15c(%rbp)
    2ff0:	83 bd 88 fe ff ff 1f 	cmpl   $0x1f,-0x178(%rbp)
    2ff7:	7f 17                	jg     3010 <Winner_price+0x1fd>
    2ff9:	8b 85 88 fe ff ff    	mov    -0x178(%rbp),%eax
    2fff:	48 98                	cltq   
    3001:	8b 95 a4 fe ff ff    	mov    -0x15c(%rbp),%edx
    3007:	89 94 85 c0 fe ff ff 	mov    %edx,-0x140(%rbp,%rax,4)
    300e:	eb 18                	jmp    3028 <Winner_price+0x215>
    3010:	8b 85 88 fe ff ff    	mov    -0x178(%rbp),%eax
    3016:	83 e8 20             	sub    $0x20,%eax
    3019:	48 98                	cltq   
    301b:	8b 95 a4 fe ff ff    	mov    -0x15c(%rbp),%edx
    3021:	89 94 85 40 ff ff ff 	mov    %edx,-0xc0(%rbp,%rax,4)
    3028:	83 85 88 fe ff ff 01 	addl   $0x1,-0x178(%rbp)
    302f:	83 bd 88 fe ff ff 3f 	cmpl   $0x3f,-0x178(%rbp)
    3036:	0f 8e 34 ff ff ff    	jle    2f70 <Winner_price+0x15d>
    303c:	c6 45 e8 00          	movb   $0x0,-0x18(%rbp)
    3040:	c7 85 8c fe ff ff 00 	movl   $0x0,-0x174(%rbp)
    3047:	00 00 00 
    304a:	e9 76 02 00 00       	jmp    32c5 <Winner_price+0x4b2>
    304f:	8b 85 8c fe ff ff    	mov    -0x174(%rbp),%eax
    3055:	c1 e0 03             	shl    $0x3,%eax
    3058:	48 98                	cltq   
    305a:	48 8d 15 bf 3f 00 00 	lea    0x3fbf(%rip),%rdx        # 7020 <ciphertext>
    3061:	0f b6 04 10          	movzbl (%rax,%rdx,1),%eax
    3065:	0f b6 d0             	movzbl %al,%edx
    3068:	8b 85 8c fe ff ff    	mov    -0x174(%rbp),%eax
    306e:	c1 e0 03             	shl    $0x3,%eax
    3071:	83 c0 01             	add    $0x1,%eax
    3074:	48 98                	cltq   
    3076:	48 8d 0d a3 3f 00 00 	lea    0x3fa3(%rip),%rcx        # 7020 <ciphertext>
    307d:	0f b6 04 08          	movzbl (%rax,%rcx,1),%eax
    3081:	0f b6 c0             	movzbl %al,%eax
    3084:	c1 e0 08             	shl    $0x8,%eax
    3087:	89 d1                	mov    %edx,%ecx
    3089:	09 c1                	or     %eax,%ecx
    308b:	8b 85 8c fe ff ff    	mov    -0x174(%rbp),%eax
    3091:	c1 e0 03             	shl    $0x3,%eax
    3094:	83 c0 02             	add    $0x2,%eax
    3097:	48 98                	cltq   
    3099:	48 8d 15 80 3f 00 00 	lea    0x3f80(%rip),%rdx        # 7020 <ciphertext>
    30a0:	0f b6 04 10          	movzbl (%rax,%rdx,1),%eax
    30a4:	0f b6 c0             	movzbl %al,%eax
    30a7:	c1 e0 10             	shl    $0x10,%eax
    30aa:	09 c1                	or     %eax,%ecx
    30ac:	8b 85 8c fe ff ff    	mov    -0x174(%rbp),%eax
    30b2:	c1 e0 03             	shl    $0x3,%eax
    30b5:	83 c0 03             	add    $0x3,%eax
    30b8:	48 98                	cltq   
    30ba:	48 8d 15 5f 3f 00 00 	lea    0x3f5f(%rip),%rdx        # 7020 <ciphertext>
    30c1:	0f b6 04 10          	movzbl (%rax,%rdx,1),%eax
    30c5:	0f b6 c0             	movzbl %al,%eax
    30c8:	c1 e0 18             	shl    $0x18,%eax
    30cb:	09 c8                	or     %ecx,%eax
    30cd:	89 85 90 fe ff ff    	mov    %eax,-0x170(%rbp)
    30d3:	8b 85 8c fe ff ff    	mov    -0x174(%rbp),%eax
    30d9:	c1 e0 03             	shl    $0x3,%eax
    30dc:	83 c0 04             	add    $0x4,%eax
    30df:	48 98                	cltq   
    30e1:	48 8d 15 38 3f 00 00 	lea    0x3f38(%rip),%rdx        # 7020 <ciphertext>
    30e8:	0f b6 04 10          	movzbl (%rax,%rdx,1),%eax
    30ec:	0f b6 d0             	movzbl %al,%edx
    30ef:	8b 85 8c fe ff ff    	mov    -0x174(%rbp),%eax
    30f5:	c1 e0 03             	shl    $0x3,%eax
    30f8:	83 c0 05             	add    $0x5,%eax
    30fb:	48 98                	cltq   
    30fd:	48 8d 0d 1c 3f 00 00 	lea    0x3f1c(%rip),%rcx        # 7020 <ciphertext>
    3104:	0f b6 04 08          	movzbl (%rax,%rcx,1),%eax
    3108:	0f b6 c0             	movzbl %al,%eax
    310b:	c1 e0 08             	shl    $0x8,%eax
    310e:	89 d1                	mov    %edx,%ecx
    3110:	09 c1                	or     %eax,%ecx
    3112:	8b 85 8c fe ff ff    	mov    -0x174(%rbp),%eax
    3118:	c1 e0 03             	shl    $0x3,%eax
    311b:	83 c0 06             	add    $0x6,%eax
    311e:	48 98                	cltq   
    3120:	48 8d 15 f9 3e 00 00 	lea    0x3ef9(%rip),%rdx        # 7020 <ciphertext>
    3127:	0f b6 04 10          	movzbl (%rax,%rdx,1),%eax
    312b:	0f b6 c0             	movzbl %al,%eax
    312e:	c1 e0 10             	shl    $0x10,%eax
    3131:	09 c1                	or     %eax,%ecx
    3133:	8b 85 8c fe ff ff    	mov    -0x174(%rbp),%eax
    3139:	c1 e0 03             	shl    $0x3,%eax
    313c:	83 c0 07             	add    $0x7,%eax
    313f:	48 98                	cltq   
    3141:	48 8d 15 d8 3e 00 00 	lea    0x3ed8(%rip),%rdx        # 7020 <ciphertext>
    3148:	0f b6 04 10          	movzbl (%rax,%rdx,1),%eax
    314c:	0f b6 c0             	movzbl %al,%eax
    314f:	c1 e0 18             	shl    $0x18,%eax
    3152:	09 c8                	or     %ecx,%eax
    3154:	89 85 94 fe ff ff    	mov    %eax,-0x16c(%rbp)
    315a:	c7 85 98 fe ff ff 1f 	movl   $0x1f,-0x168(%rbp)
    3161:	00 00 00 
    3164:	eb 74                	jmp    31da <Winner_price+0x3c7>
    3166:	8b 85 90 fe ff ff    	mov    -0x170(%rbp),%eax
    316c:	89 85 9c fe ff ff    	mov    %eax,-0x164(%rbp)
    3172:	8b 85 94 fe ff ff    	mov    -0x16c(%rbp),%eax
    3178:	89 85 90 fe ff ff    	mov    %eax,-0x170(%rbp)
    317e:	8b 85 9c fe ff ff    	mov    -0x164(%rbp),%eax
    3184:	89 85 94 fe ff ff    	mov    %eax,-0x16c(%rbp)
    318a:	8b 85 94 fe ff ff    	mov    -0x16c(%rbp),%eax
    3190:	c1 c0 05             	rol    $0x5,%eax
    3193:	89 c1                	mov    %eax,%ecx
    3195:	8b 85 98 fe ff ff    	mov    -0x168(%rbp),%eax
    319b:	48 98                	cltq   
    319d:	8b 94 85 c0 fe ff ff 	mov    -0x140(%rbp,%rax,4),%edx
    31a4:	8b 85 94 fe ff ff    	mov    -0x16c(%rbp),%eax
    31aa:	01 d0                	add    %edx,%eax
    31ac:	31 c1                	xor    %eax,%ecx
    31ae:	89 ca                	mov    %ecx,%edx
    31b0:	8b 85 98 fe ff ff    	mov    -0x168(%rbp),%eax
    31b6:	48 98                	cltq   
    31b8:	8b 84 85 40 ff ff ff 	mov    -0xc0(%rbp,%rax,4),%eax
    31bf:	01 d0                	add    %edx,%eax
    31c1:	89 85 a0 fe ff ff    	mov    %eax,-0x160(%rbp)
    31c7:	8b 85 a0 fe ff ff    	mov    -0x160(%rbp),%eax
    31cd:	29 85 90 fe ff ff    	sub    %eax,-0x170(%rbp)
    31d3:	83 ad 98 fe ff ff 01 	subl   $0x1,-0x168(%rbp)
    31da:	83 bd 98 fe ff ff 00 	cmpl   $0x0,-0x168(%rbp)
    31e1:	79 83                	jns    3166 <Winner_price+0x353>
    31e3:	8b 85 8c fe ff ff    	mov    -0x174(%rbp),%eax
    31e9:	c1 e0 03             	shl    $0x3,%eax
    31ec:	8b 95 90 fe ff ff    	mov    -0x170(%rbp),%edx
    31f2:	48 98                	cltq   
    31f4:	88 54 05 c0          	mov    %dl,-0x40(%rbp,%rax,1)
    31f8:	8b 85 90 fe ff ff    	mov    -0x170(%rbp),%eax
    31fe:	c1 e8 08             	shr    $0x8,%eax
    3201:	89 c2                	mov    %eax,%edx
    3203:	8b 85 8c fe ff ff    	mov    -0x174(%rbp),%eax
    3209:	c1 e0 03             	shl    $0x3,%eax
    320c:	83 c0 01             	add    $0x1,%eax
    320f:	48 98                	cltq   
    3211:	88 54 05 c0          	mov    %dl,-0x40(%rbp,%rax,1)
    3215:	8b 85 90 fe ff ff    	mov    -0x170(%rbp),%eax
    321b:	c1 e8 10             	shr    $0x10,%eax
    321e:	89 c2                	mov    %eax,%edx
    3220:	8b 85 8c fe ff ff    	mov    -0x174(%rbp),%eax
    3226:	c1 e0 03             	shl    $0x3,%eax
    3229:	83 c0 02             	add    $0x2,%eax
    322c:	48 98                	cltq   
    322e:	88 54 05 c0          	mov    %dl,-0x40(%rbp,%rax,1)
    3232:	8b 85 90 fe ff ff    	mov    -0x170(%rbp),%eax
    3238:	c1 e8 18             	shr    $0x18,%eax
    323b:	89 c2                	mov    %eax,%edx
    323d:	8b 85 8c fe ff ff    	mov    -0x174(%rbp),%eax
    3243:	c1 e0 03             	shl    $0x3,%eax
    3246:	83 c0 03             	add    $0x3,%eax
    3249:	48 98                	cltq   
    324b:	88 54 05 c0          	mov    %dl,-0x40(%rbp,%rax,1)
    324f:	8b 85 8c fe ff ff    	mov    -0x174(%rbp),%eax
    3255:	c1 e0 03             	shl    $0x3,%eax
    3258:	83 c0 04             	add    $0x4,%eax
    325b:	8b 95 94 fe ff ff    	mov    -0x16c(%rbp),%edx
    3261:	48 98                	cltq   
    3263:	88 54 05 c0          	mov    %dl,-0x40(%rbp,%rax,1)
    3267:	8b 85 94 fe ff ff    	mov    -0x16c(%rbp),%eax
    326d:	c1 e8 08             	shr    $0x8,%eax
    3270:	89 c2                	mov    %eax,%edx
    3272:	8b 85 8c fe ff ff    	mov    -0x174(%rbp),%eax
    3278:	c1 e0 03             	shl    $0x3,%eax
    327b:	83 c0 05             	add    $0x5,%eax
    327e:	48 98                	cltq   
    3280:	88 54 05 c0          	mov    %dl,-0x40(%rbp,%rax,1)
    3284:	8b 85 94 fe ff ff    	mov    -0x16c(%rbp),%eax
    328a:	c1 e8 10             	shr    $0x10,%eax
    328d:	89 c2                	mov    %eax,%edx
    328f:	8b 85 8c fe ff ff    	mov    -0x174(%rbp),%eax
    3295:	c1 e0 03             	shl    $0x3,%eax
    3298:	83 c0 06             	add    $0x6,%eax
    329b:	48 98                	cltq   
    329d:	88 54 05 c0          	mov    %dl,-0x40(%rbp,%rax,1)
    32a1:	8b 85 94 fe ff ff    	mov    -0x16c(%rbp),%eax
    32a7:	c1 e8 18             	shr    $0x18,%eax
    32aa:	89 c2                	mov    %eax,%edx
    32ac:	8b 85 8c fe ff ff    	mov    -0x174(%rbp),%eax
    32b2:	c1 e0 03             	shl    $0x3,%eax
    32b5:	83 c0 07             	add    $0x7,%eax
    32b8:	48 98                	cltq   
    32ba:	88 54 05 c0          	mov    %dl,-0x40(%rbp,%rax,1)
    32be:	83 85 8c fe ff ff 01 	addl   $0x1,-0x174(%rbp)
    32c5:	83 bd 8c fe ff ff 04 	cmpl   $0x4,-0x174(%rbp)
    32cc:	0f 8e 7d fd ff ff    	jle    304f <Winner_price+0x23c>
    32d2:	48 8d 45 c0          	lea    -0x40(%rbp),%rax
    32d6:	48 89 c7             	mov    %rax,%rdi
    32d9:	e8 d2 f0 ff ff       	call   23b0 <_init+0x3b0>
    32de:	48 8b 05 c3 3d 00 00 	mov    0x3dc3(%rip),%rax        # 70a8 <stdout@GLIBC_2.2.5>
    32e5:	48 89 c7             	mov    %rax,%rdi
    32e8:	e8 23 f3 ff ff       	call   2610 <_init+0x610>
    32ed:	b8 00 00 00 00       	mov    $0x0,%eax
    32f2:	e8 12 f4 ff ff       	call   2709 <secret_report_honeypot>
    32f7:	bf 00 00 00 00       	mov    $0x0,%edi
    32fc:	e8 cf f0 ff ff       	call   23d0 <_init+0x3d0>

0000000000003301 <spawn_food>:
    3301:	f3 0f 1e fa          	endbr64 
    3305:	55                   	push   %rbp
    3306:	48 89 e5             	mov    %rsp,%rbp
    3309:	48 83 ec 10          	sub    $0x10,%rsp
    330d:	c7 45 f8 00 00 00 00 	movl   $0x0,-0x8(%rbp)
    3314:	e9 a4 00 00 00       	jmp    33bd <spawn_food+0xbc>
    3319:	e8 72 f2 ff ff       	call   2590 <_init+0x590>
    331e:	ba 3c 00 00 00       	mov    $0x3c,%edx
    3323:	8d 72 fe             	lea    -0x2(%rdx),%esi
    3326:	99                   	cltd   
    3327:	f7 fe                	idiv   %esi
    3329:	89 d1                	mov    %edx,%ecx
    332b:	89 c8                	mov    %ecx,%eax
    332d:	83 c0 01             	add    $0x1,%eax
    3330:	89 05 da 8b 00 00    	mov    %eax,0x8bda(%rip)        # bf10 <food_x>
    3336:	e8 55 f2 ff ff       	call   2590 <_init+0x590>
    333b:	ba 14 00 00 00       	mov    $0x14,%edx
    3340:	8d 7a fe             	lea    -0x2(%rdx),%edi
    3343:	99                   	cltd   
    3344:	f7 ff                	idiv   %edi
    3346:	89 d1                	mov    %edx,%ecx
    3348:	89 c8                	mov    %ecx,%eax
    334a:	83 c0 01             	add    $0x1,%eax
    334d:	89 05 c1 8b 00 00    	mov    %eax,0x8bc1(%rip)        # bf14 <food_y>
    3353:	c7 45 f8 01 00 00 00 	movl   $0x1,-0x8(%rbp)
    335a:	c7 45 fc 00 00 00 00 	movl   $0x0,-0x4(%rbp)
    3361:	eb 4f                	jmp    33b2 <spawn_food+0xb1>
    3363:	8b 45 fc             	mov    -0x4(%rbp),%eax
    3366:	48 98                	cltq   
    3368:	48 8d 14 85 00 00 00 	lea    0x0(,%rax,4),%rdx
    336f:	00 
    3370:	48 8d 05 69 3d 00 00 	lea    0x3d69(%rip),%rax        # 70e0 <snake_x>
    3377:	8b 14 02             	mov    (%rdx,%rax,1),%edx
    337a:	8b 05 90 8b 00 00    	mov    0x8b90(%rip),%eax        # bf10 <food_x>
    3380:	39 c2                	cmp    %eax,%edx
    3382:	75 2a                	jne    33ae <spawn_food+0xad>
    3384:	8b 45 fc             	mov    -0x4(%rbp),%eax
    3387:	48 98                	cltq   
    3389:	48 8d 14 85 00 00 00 	lea    0x0(,%rax,4),%rdx
    3390:	00 
    3391:	48 8d 05 68 64 00 00 	lea    0x6468(%rip),%rax        # 9800 <snake_y>
    3398:	8b 14 02             	mov    (%rdx,%rax,1),%edx
    339b:	8b 05 73 8b 00 00    	mov    0x8b73(%rip),%eax        # bf14 <food_y>
    33a1:	39 c2                	cmp    %eax,%edx
    33a3:	75 09                	jne    33ae <spawn_food+0xad>
    33a5:	c7 45 f8 00 00 00 00 	movl   $0x0,-0x8(%rbp)
    33ac:	eb 0f                	jmp    33bd <spawn_food+0xbc>
    33ae:	83 45 fc 01          	addl   $0x1,-0x4(%rbp)
    33b2:	8b 05 c8 3c 00 00    	mov    0x3cc8(%rip),%eax        # 7080 <snake_length>
    33b8:	39 45 fc             	cmp    %eax,-0x4(%rbp)
    33bb:	7c a6                	jl     3363 <spawn_food+0x62>
    33bd:	83 7d f8 00          	cmpl   $0x0,-0x8(%rbp)
    33c1:	0f 84 52 ff ff ff    	je     3319 <spawn_food+0x18>
    33c7:	90                   	nop
    33c8:	90                   	nop
    33c9:	c9                   	leave  
    33ca:	c3                   	ret    

00000000000033cb <init_game>:
    33cb:	f3 0f 1e fa          	endbr64 
    33cf:	55                   	push   %rbp
    33d0:	48 89 e5             	mov    %rsp,%rbp
    33d3:	48 83 ec 10          	sub    $0x10,%rsp
    33d7:	c7 05 df 3c 00 00 00 	movl   $0x0,0x3cdf(%rip)        # 70c0 <player_score>
    33de:	00 00 00 
    33e1:	c7 05 d9 3c 00 00 00 	movl   $0x0,0x3cd9(%rip)        # 70c4 <verified_score>
    33e8:	00 00 00 
    33eb:	c7 05 8b 3c 00 00 03 	movl   $0x3,0x3c8b(%rip)        # 7080 <snake_length>
    33f2:	00 00 00 
    33f5:	c7 05 85 3c 00 00 03 	movl   $0x3,0x3c85(%rip)        # 7084 <direction>
    33fc:	00 00 00 
    33ff:	c7 05 0f 8b 00 00 00 	movl   $0x0,0x8b0f(%rip)        # bf18 <game_over>
    3406:	00 00 00 
    3409:	b8 3c 00 00 00       	mov    $0x3c,%eax
    340e:	89 c2                	mov    %eax,%edx
    3410:	c1 ea 1f             	shr    $0x1f,%edx
    3413:	01 d0                	add    %edx,%eax
    3415:	d1 f8                	sar    %eax
    3417:	89 45 f8             	mov    %eax,-0x8(%rbp)
    341a:	b8 14 00 00 00       	mov    $0x14,%eax
    341f:	89 c2                	mov    %eax,%edx
    3421:	c1 ea 1f             	shr    $0x1f,%edx
    3424:	01 d0                	add    %edx,%eax
    3426:	d1 f8                	sar    %eax
    3428:	89 45 fc             	mov    %eax,-0x4(%rbp)
    342b:	c7 45 f4 00 00 00 00 	movl   $0x0,-0xc(%rbp)
    3432:	eb 3c                	jmp    3470 <init_game+0xa5>
    3434:	8b 45 f8             	mov    -0x8(%rbp),%eax
    3437:	2b 45 f4             	sub    -0xc(%rbp),%eax
    343a:	8b 55 f4             	mov    -0xc(%rbp),%edx
    343d:	48 63 d2             	movslq %edx,%rdx
    3440:	48 8d 0c 95 00 00 00 	lea    0x0(,%rdx,4),%rcx
    3447:	00 
    3448:	48 8d 15 91 3c 00 00 	lea    0x3c91(%rip),%rdx        # 70e0 <snake_x>
    344f:	89 04 11             	mov    %eax,(%rcx,%rdx,1)
    3452:	8b 45 f4             	mov    -0xc(%rbp),%eax
    3455:	48 98                	cltq   
    3457:	48 8d 0c 85 00 00 00 	lea    0x0(,%rax,4),%rcx
    345e:	00 
    345f:	48 8d 15 9a 63 00 00 	lea    0x639a(%rip),%rdx        # 9800 <snake_y>
    3466:	8b 45 fc             	mov    -0x4(%rbp),%eax
    3469:	89 04 11             	mov    %eax,(%rcx,%rdx,1)
    346c:	83 45 f4 01          	addl   $0x1,-0xc(%rbp)
    3470:	8b 05 0a 3c 00 00    	mov    0x3c0a(%rip),%eax        # 7080 <snake_length>
    3476:	39 45 f4             	cmp    %eax,-0xc(%rbp)
    3479:	7c b9                	jl     3434 <init_game+0x69>
    347b:	b8 00 00 00 00       	mov    $0x0,%eax
    3480:	e8 7c fe ff ff       	call   3301 <spawn_food>
    3485:	90                   	nop
    3486:	c9                   	leave  
    3487:	c3                   	ret    

0000000000003488 <draw_game>:
    3488:	f3 0f 1e fa          	endbr64 
    348c:	55                   	push   %rbp
    348d:	48 89 e5             	mov    %rsp,%rbp
    3490:	48 83 c4 80          	add    $0xffffffffffffff80,%rsp
    3494:	64 48 8b 04 25 28 00 	mov    %fs:0x28,%rax
    349b:	00 00 
    349d:	48 89 45 f8          	mov    %rax,-0x8(%rbp)
    34a1:	31 c0                	xor    %eax,%eax
    34a3:	48 8b 05 f6 3b 00 00 	mov    0x3bf6(%rip),%rax        # 70a0 <stdscr@NCURSES6_TINFO_5.0.19991023>
    34aa:	48 89 c7             	mov    %rax,%rdi
    34ad:	e8 ae ef ff ff       	call   2460 <_init+0x460>
    34b2:	48 8b 05 e7 3b 00 00 	mov    0x3be7(%rip),%rax        # 70a0 <stdscr@NCURSES6_TINFO_5.0.19991023>
    34b9:	ba 00 00 00 00       	mov    $0x0,%edx
    34be:	be 00 03 00 00       	mov    $0x300,%esi
    34c3:	48 89 c7             	mov    %rax,%rdi
    34c6:	e8 a5 ef ff ff       	call   2470 <_init+0x470>
    34cb:	48 8d 05 74 1d 00 00 	lea    0x1d74(%rip),%rax        # 5246 <game_height+0xf6>
    34d2:	48 89 c2             	mov    %rax,%rdx
    34d5:	be 00 00 00 00       	mov    $0x0,%esi
    34da:	bf 00 00 00 00       	mov    $0x0,%edi
    34df:	b8 00 00 00 00       	mov    $0x0,%eax
    34e4:	e8 a7 ee ff ff       	call   2390 <_init+0x390>
    34e9:	b8 3c 00 00 00       	mov    $0x3c,%eax
    34ee:	83 e8 10             	sub    $0x10,%eax
    34f1:	89 c2                	mov    %eax,%edx
    34f3:	c1 ea 1f             	shr    $0x1f,%edx
    34f6:	01 d0                	add    %edx,%eax
    34f8:	d1 f8                	sar    %eax
    34fa:	89 45 9c             	mov    %eax,-0x64(%rbp)
    34fd:	c7 45 80 01 00 00 00 	movl   $0x1,-0x80(%rbp)
    3504:	e9 85 00 00 00       	jmp    358e <draw_game+0x106>
    3509:	8b 45 80             	mov    -0x80(%rbp),%eax
    350c:	3b 45 9c             	cmp    -0x64(%rbp),%eax
    350f:	75 65                	jne    3576 <draw_game+0xee>
    3511:	48 8b 05 88 3b 00 00 	mov    0x3b88(%rip),%rax        # 70a0 <stdscr@NCURSES6_TINFO_5.0.19991023>
    3518:	ba 00 00 00 00       	mov    $0x0,%edx
    351d:	be 00 05 20 00       	mov    $0x200500,%esi
    3522:	48 89 c7             	mov    %rax,%rdi
    3525:	e8 46 ef ff ff       	call   2470 <_init+0x470>
    352a:	48 8d 05 19 1d 00 00 	lea    0x1d19(%rip),%rax        # 524a <game_height+0xfa>
    3531:	48 89 c7             	mov    %rax,%rdi
    3534:	b8 00 00 00 00       	mov    $0x0,%eax
    3539:	e8 22 f0 ff ff       	call   2560 <_init+0x560>
    353e:	48 8b 05 5b 3b 00 00 	mov    0x3b5b(%rip),%rax        # 70a0 <stdscr@NCURSES6_TINFO_5.0.19991023>
    3545:	ba 00 00 00 00       	mov    $0x0,%edx
    354a:	be 00 05 20 00       	mov    $0x200500,%esi
    354f:	48 89 c7             	mov    %rax,%rdi
    3552:	e8 79 f0 ff ff       	call   25d0 <_init+0x5d0>
    3557:	48 8b 05 42 3b 00 00 	mov    0x3b42(%rip),%rax        # 70a0 <stdscr@NCURSES6_TINFO_5.0.19991023>
    355e:	ba 00 00 00 00       	mov    $0x0,%edx
    3563:	be 00 03 00 00       	mov    $0x300,%esi
    3568:	48 89 c7             	mov    %rax,%rdi
    356b:	e8 00 ef ff ff       	call   2470 <_init+0x470>
    3570:	83 45 80 0f          	addl   $0xf,-0x80(%rbp)
    3574:	eb 14                	jmp    358a <draw_game+0x102>
    3576:	48 8d 05 de 1c 00 00 	lea    0x1cde(%rip),%rax        # 525b <game_height+0x10b>
    357d:	48 89 c7             	mov    %rax,%rdi
    3580:	b8 00 00 00 00       	mov    $0x0,%eax
    3585:	e8 d6 ef ff ff       	call   2560 <_init+0x560>
    358a:	83 45 80 01          	addl   $0x1,-0x80(%rbp)
    358e:	b8 3c 00 00 00       	mov    $0x3c,%eax
    3593:	83 e8 01             	sub    $0x1,%eax
    3596:	39 45 80             	cmp    %eax,-0x80(%rbp)
    3599:	0f 8c 6a ff ff ff    	jl     3509 <draw_game+0x81>
    359f:	b8 3c 00 00 00       	mov    $0x3c,%eax
    35a4:	83 e8 01             	sub    $0x1,%eax
    35a7:	48 8d 15 b1 1c 00 00 	lea    0x1cb1(%rip),%rdx        # 525f <game_height+0x10f>
    35ae:	89 c6                	mov    %eax,%esi
    35b0:	bf 00 00 00 00       	mov    $0x0,%edi
    35b5:	b8 00 00 00 00       	mov    $0x0,%eax
    35ba:	e8 d1 ed ff ff       	call   2390 <_init+0x390>
    35bf:	c7 45 84 01 00 00 00 	movl   $0x1,-0x7c(%rbp)
    35c6:	eb 3f                	jmp    3607 <draw_game+0x17f>
    35c8:	8b 45 84             	mov    -0x7c(%rbp),%eax
    35cb:	48 8d 15 91 1c 00 00 	lea    0x1c91(%rip),%rdx        # 5263 <game_height+0x113>
    35d2:	be 00 00 00 00       	mov    $0x0,%esi
    35d7:	89 c7                	mov    %eax,%edi
    35d9:	b8 00 00 00 00       	mov    $0x0,%eax
    35de:	e8 ad ed ff ff       	call   2390 <_init+0x390>
    35e3:	b8 3c 00 00 00       	mov    $0x3c,%eax
    35e8:	8d 48 ff             	lea    -0x1(%rax),%ecx
    35eb:	8b 45 84             	mov    -0x7c(%rbp),%eax
    35ee:	48 8d 15 6e 1c 00 00 	lea    0x1c6e(%rip),%rdx        # 5263 <game_height+0x113>
    35f5:	89 ce                	mov    %ecx,%esi
    35f7:	89 c7                	mov    %eax,%edi
    35f9:	b8 00 00 00 00       	mov    $0x0,%eax
    35fe:	e8 8d ed ff ff       	call   2390 <_init+0x390>
    3603:	83 45 84 01          	addl   $0x1,-0x7c(%rbp)
    3607:	b8 14 00 00 00       	mov    $0x14,%eax
    360c:	83 e8 01             	sub    $0x1,%eax
    360f:	39 45 84             	cmp    %eax,-0x7c(%rbp)
    3612:	7c b4                	jl     35c8 <draw_game+0x140>
    3614:	b8 14 00 00 00       	mov    $0x14,%eax
    3619:	83 e8 01             	sub    $0x1,%eax
    361c:	48 8d 15 44 1c 00 00 	lea    0x1c44(%rip),%rdx        # 5267 <game_height+0x117>
    3623:	be 00 00 00 00       	mov    $0x0,%esi
    3628:	89 c7                	mov    %eax,%edi
    362a:	b8 00 00 00 00       	mov    $0x0,%eax
    362f:	e8 5c ed ff ff       	call   2390 <_init+0x390>
    3634:	c7 45 88 01 00 00 00 	movl   $0x1,-0x78(%rbp)
    363b:	eb 24                	jmp    3661 <draw_game+0x1d9>
    363d:	b8 14 00 00 00       	mov    $0x14,%eax
    3642:	8d 48 ff             	lea    -0x1(%rax),%ecx
    3645:	8b 45 88             	mov    -0x78(%rbp),%eax
    3648:	48 8d 15 0c 1c 00 00 	lea    0x1c0c(%rip),%rdx        # 525b <game_height+0x10b>
    364f:	89 c6                	mov    %eax,%esi
    3651:	89 cf                	mov    %ecx,%edi
    3653:	b8 00 00 00 00       	mov    $0x0,%eax
    3658:	e8 33 ed ff ff       	call   2390 <_init+0x390>
    365d:	83 45 88 01          	addl   $0x1,-0x78(%rbp)
    3661:	b8 3c 00 00 00       	mov    $0x3c,%eax
    3666:	83 e8 01             	sub    $0x1,%eax
    3669:	39 45 88             	cmp    %eax,-0x78(%rbp)
    366c:	7c cf                	jl     363d <draw_game+0x1b5>
    366e:	b8 3c 00 00 00       	mov    $0x3c,%eax
    3673:	8d 48 ff             	lea    -0x1(%rax),%ecx
    3676:	b8 14 00 00 00       	mov    $0x14,%eax
    367b:	83 e8 01             	sub    $0x1,%eax
    367e:	48 8d 15 e6 1b 00 00 	lea    0x1be6(%rip),%rdx        # 526b <game_height+0x11b>
    3685:	89 ce                	mov    %ecx,%esi
    3687:	89 c7                	mov    %eax,%edi
    3689:	b8 00 00 00 00       	mov    $0x0,%eax
    368e:	e8 fd ec ff ff       	call   2390 <_init+0x390>
    3693:	48 8b 05 06 3a 00 00 	mov    0x3a06(%rip),%rax        # 70a0 <stdscr@NCURSES6_TINFO_5.0.19991023>
    369a:	ba 00 00 00 00       	mov    $0x0,%edx
    369f:	be 00 03 00 00       	mov    $0x300,%esi
    36a4:	48 89 c7             	mov    %rax,%rdi
    36a7:	e8 24 ef ff ff       	call   25d0 <_init+0x5d0>
    36ac:	48 8d 05 bc 1b 00 00 	lea    0x1bbc(%rip),%rax        # 526f <game_height+0x11f>
    36b3:	48 89 45 c0          	mov    %rax,-0x40(%rbp)
    36b7:	48 8d 05 b3 1b 00 00 	lea    0x1bb3(%rip),%rax        # 5271 <game_height+0x121>
    36be:	48 89 45 c8          	mov    %rax,-0x38(%rbp)
    36c2:	48 8d 05 aa 1b 00 00 	lea    0x1baa(%rip),%rax        # 5273 <game_height+0x123>
    36c9:	48 89 45 d0          	mov    %rax,-0x30(%rbp)
    36cd:	48 8d 05 a1 1b 00 00 	lea    0x1ba1(%rip),%rax        # 5275 <game_height+0x125>
    36d4:	48 89 45 d8          	mov    %rax,-0x28(%rbp)
    36d8:	48 8d 05 98 1b 00 00 	lea    0x1b98(%rip),%rax        # 5277 <game_height+0x127>
    36df:	48 89 45 e0          	mov    %rax,-0x20(%rbp)
    36e3:	48 8d 05 8f 1b 00 00 	lea    0x1b8f(%rip),%rax        # 5279 <game_height+0x129>
    36ea:	48 89 45 e8          	mov    %rax,-0x18(%rbp)
    36ee:	8b 05 cc 39 00 00    	mov    0x39cc(%rip),%eax        # 70c0 <player_score>
    36f4:	48 63 d0             	movslq %eax,%rdx
    36f7:	48 69 d2 67 66 66 66 	imul   $0x66666667,%rdx,%rdx
    36fe:	48 c1 ea 20          	shr    $0x20,%rdx
    3702:	d1 fa                	sar    %edx
    3704:	c1 f8 1f             	sar    $0x1f,%eax
    3707:	89 d1                	mov    %edx,%ecx
    3709:	29 c1                	sub    %eax,%ecx
    370b:	48 63 c1             	movslq %ecx,%rax
    370e:	48 69 c0 ab aa aa 2a 	imul   $0x2aaaaaab,%rax,%rax
    3715:	48 c1 e8 20          	shr    $0x20,%rax
    3719:	48 89 c2             	mov    %rax,%rdx
    371c:	89 c8                	mov    %ecx,%eax
    371e:	c1 f8 1f             	sar    $0x1f,%eax
    3721:	29 c2                	sub    %eax,%edx
    3723:	89 d0                	mov    %edx,%eax
    3725:	01 c0                	add    %eax,%eax
    3727:	01 d0                	add    %edx,%eax
    3729:	01 c0                	add    %eax,%eax
    372b:	29 c1                	sub    %eax,%ecx
    372d:	89 ca                	mov    %ecx,%edx
    372f:	48 63 c2             	movslq %edx,%rax
    3732:	48 8b 44 c5 c0       	mov    -0x40(%rbp,%rax,8),%rax
    3737:	48 89 45 b8          	mov    %rax,-0x48(%rbp)
    373b:	48 8b 05 5e 39 00 00 	mov    0x395e(%rip),%rax        # 70a0 <stdscr@NCURSES6_TINFO_5.0.19991023>
    3742:	ba 00 00 00 00       	mov    $0x0,%edx
    3747:	be 00 02 24 00       	mov    $0x240200,%esi
    374c:	48 89 c7             	mov    %rax,%rdi
    374f:	e8 1c ed ff ff       	call   2470 <_init+0x470>
    3754:	8b 35 b6 87 00 00    	mov    0x87b6(%rip),%esi        # bf10 <food_x>
    375a:	8b 05 b4 87 00 00    	mov    0x87b4(%rip),%eax        # bf14 <food_y>
    3760:	48 8b 55 b8          	mov    -0x48(%rbp),%rdx
    3764:	48 89 d1             	mov    %rdx,%rcx
    3767:	48 8d 15 ec 19 00 00 	lea    0x19ec(%rip),%rdx        # 515a <game_height+0xa>
    376e:	89 c7                	mov    %eax,%edi
    3770:	b8 00 00 00 00       	mov    $0x0,%eax
    3775:	e8 16 ec ff ff       	call   2390 <_init+0x390>
    377a:	48 8b 05 1f 39 00 00 	mov    0x391f(%rip),%rax        # 70a0 <stdscr@NCURSES6_TINFO_5.0.19991023>
    3781:	ba 00 00 00 00       	mov    $0x0,%edx
    3786:	be 00 02 24 00       	mov    $0x240200,%esi
    378b:	48 89 c7             	mov    %rax,%rdi
    378e:	e8 3d ee ff ff       	call   25d0 <_init+0x5d0>
    3793:	48 8b 05 06 39 00 00 	mov    0x3906(%rip),%rax        # 70a0 <stdscr@NCURSES6_TINFO_5.0.19991023>
    379a:	ba 00 00 00 00       	mov    $0x0,%edx
    379f:	be 00 01 20 00       	mov    $0x200100,%esi
    37a4:	48 89 c7             	mov    %rax,%rdi
    37a7:	e8 c4 ec ff ff       	call   2470 <_init+0x470>
    37ac:	c7 45 8c 01 00 00 00 	movl   $0x1,-0x74(%rbp)
    37b3:	eb 47                	jmp    37fc <draw_game+0x374>
    37b5:	8b 45 8c             	mov    -0x74(%rbp),%eax
    37b8:	48 98                	cltq   
    37ba:	48 8d 14 85 00 00 00 	lea    0x0(,%rax,4),%rdx
    37c1:	00 
    37c2:	48 8d 05 17 39 00 00 	lea    0x3917(%rip),%rax        # 70e0 <snake_x>
    37c9:	8b 0c 02             	mov    (%rdx,%rax,1),%ecx
    37cc:	8b 45 8c             	mov    -0x74(%rbp),%eax
    37cf:	48 98                	cltq   
    37d1:	48 8d 14 85 00 00 00 	lea    0x0(,%rax,4),%rdx
    37d8:	00 
    37d9:	48 8d 05 20 60 00 00 	lea    0x6020(%rip),%rax        # 9800 <snake_y>
    37e0:	8b 04 02             	mov    (%rdx,%rax,1),%eax
    37e3:	48 8d 15 91 1a 00 00 	lea    0x1a91(%rip),%rdx        # 527b <game_height+0x12b>
    37ea:	89 ce                	mov    %ecx,%esi
    37ec:	89 c7                	mov    %eax,%edi
    37ee:	b8 00 00 00 00       	mov    $0x0,%eax
    37f3:	e8 98 eb ff ff       	call   2390 <_init+0x390>
    37f8:	83 45 8c 01          	addl   $0x1,-0x74(%rbp)
    37fc:	8b 05 7e 38 00 00    	mov    0x387e(%rip),%eax        # 7080 <snake_length>
    3802:	39 45 8c             	cmp    %eax,-0x74(%rbp)
    3805:	7c ae                	jl     37b5 <draw_game+0x32d>
    3807:	48 8b 05 92 38 00 00 	mov    0x3892(%rip),%rax        # 70a0 <stdscr@NCURSES6_TINFO_5.0.19991023>
    380e:	ba 00 00 00 00       	mov    $0x0,%edx
    3813:	be 00 01 20 00       	mov    $0x200100,%esi
    3818:	48 89 c7             	mov    %rax,%rdi
    381b:	e8 b0 ed ff ff       	call   25d0 <_init+0x5d0>
    3820:	48 8b 05 79 38 00 00 	mov    0x3879(%rip),%rax        # 70a0 <stdscr@NCURSES6_TINFO_5.0.19991023>
    3827:	ba 00 00 00 00       	mov    $0x0,%edx
    382c:	be 00 04 20 00       	mov    $0x200400,%esi
    3831:	48 89 c7             	mov    %rax,%rdi
    3834:	e8 37 ec ff ff       	call   2470 <_init+0x470>
    3839:	48 8d 05 3f 1a 00 00 	lea    0x1a3f(%rip),%rax        # 527f <game_height+0x12f>
    3840:	48 89 45 a8          	mov    %rax,-0x58(%rbp)
    3844:	8b 05 3a 38 00 00    	mov    0x383a(%rip),%eax        # 7084 <direction>
    384a:	83 f8 03             	cmp    $0x3,%eax
    384d:	74 41                	je     3890 <draw_game+0x408>
    384f:	83 f8 03             	cmp    $0x3,%eax
    3852:	7f 48                	jg     389c <draw_game+0x414>
    3854:	83 f8 02             	cmp    $0x2,%eax
    3857:	74 2a                	je     3883 <draw_game+0x3fb>
    3859:	83 f8 02             	cmp    $0x2,%eax
    385c:	7f 3e                	jg     389c <draw_game+0x414>
    385e:	85 c0                	test   %eax,%eax
    3860:	74 07                	je     3869 <draw_game+0x3e1>
    3862:	83 f8 01             	cmp    $0x1,%eax
    3865:	74 0f                	je     3876 <draw_game+0x3ee>
    3867:	eb 33                	jmp    389c <draw_game+0x414>
    3869:	48 8d 05 13 1a 00 00 	lea    0x1a13(%rip),%rax        # 5283 <game_height+0x133>
    3870:	48 89 45 a8          	mov    %rax,-0x58(%rbp)
    3874:	eb 26                	jmp    389c <draw_game+0x414>
    3876:	48 8d 05 0a 1a 00 00 	lea    0x1a0a(%rip),%rax        # 5287 <game_height+0x137>
    387d:	48 89 45 a8          	mov    %rax,-0x58(%rbp)
    3881:	eb 19                	jmp    389c <draw_game+0x414>
    3883:	48 8d 05 01 1a 00 00 	lea    0x1a01(%rip),%rax        # 528b <game_height+0x13b>
    388a:	48 89 45 a8          	mov    %rax,-0x58(%rbp)
    388e:	eb 0c                	jmp    389c <draw_game+0x414>
    3890:	48 8d 05 e8 19 00 00 	lea    0x19e8(%rip),%rax        # 527f <game_height+0x12f>
    3897:	48 89 45 a8          	mov    %rax,-0x58(%rbp)
    389b:	90                   	nop
    389c:	8b 35 3e 38 00 00    	mov    0x383e(%rip),%esi        # 70e0 <snake_x>
    38a2:	8b 05 58 5f 00 00    	mov    0x5f58(%rip),%eax        # 9800 <snake_y>
    38a8:	48 8b 55 a8          	mov    -0x58(%rbp),%rdx
    38ac:	48 89 d1             	mov    %rdx,%rcx
    38af:	48 8d 15 a4 18 00 00 	lea    0x18a4(%rip),%rdx        # 515a <game_height+0xa>
    38b6:	89 c7                	mov    %eax,%edi
    38b8:	b8 00 00 00 00       	mov    $0x0,%eax
    38bd:	e8 ce ea ff ff       	call   2390 <_init+0x390>
    38c2:	48 8b 05 d7 37 00 00 	mov    0x37d7(%rip),%rax        # 70a0 <stdscr@NCURSES6_TINFO_5.0.19991023>
    38c9:	ba 00 00 00 00       	mov    $0x0,%edx
    38ce:	be 00 04 20 00       	mov    $0x200400,%esi
    38d3:	48 89 c7             	mov    %rax,%rdi
    38d6:	e8 f5 ec ff ff       	call   25d0 <_init+0x5d0>
    38db:	48 8b 05 be 37 00 00 	mov    0x37be(%rip),%rax        # 70a0 <stdscr@NCURSES6_TINFO_5.0.19991023>
    38e2:	ba 00 00 00 00       	mov    $0x0,%edx
    38e7:	be 00 03 00 00       	mov    $0x300,%esi
    38ec:	48 89 c7             	mov    %rax,%rdi
    38ef:	e8 7c eb ff ff       	call   2470 <_init+0x470>
    38f4:	c7 45 90 00 00 00 00 	movl   $0x0,-0x70(%rbp)
    38fb:	eb 24                	jmp    3921 <draw_game+0x499>
    38fd:	b8 3c 00 00 00       	mov    $0x3c,%eax
    3902:	8d 48 02             	lea    0x2(%rax),%ecx
    3905:	8b 45 90             	mov    -0x70(%rbp),%eax
    3908:	48 8d 15 54 19 00 00 	lea    0x1954(%rip),%rdx        # 5263 <game_height+0x113>
    390f:	89 ce                	mov    %ecx,%esi
    3911:	89 c7                	mov    %eax,%edi
    3913:	b8 00 00 00 00       	mov    $0x0,%eax
    3918:	e8 73 ea ff ff       	call   2390 <_init+0x390>
    391d:	83 45 90 01          	addl   $0x1,-0x70(%rbp)
    3921:	b8 14 00 00 00       	mov    $0x14,%eax
    3926:	39 45 90             	cmp    %eax,-0x70(%rbp)
    3929:	7c d2                	jl     38fd <draw_game+0x475>
    392b:	48 8b 05 6e 37 00 00 	mov    0x376e(%rip),%rax        # 70a0 <stdscr@NCURSES6_TINFO_5.0.19991023>
    3932:	ba 00 00 00 00       	mov    $0x0,%edx
    3937:	be 00 03 00 00       	mov    $0x300,%esi
    393c:	48 89 c7             	mov    %rax,%rdi
    393f:	e8 8c ec ff ff       	call   25d0 <_init+0x5d0>
    3944:	b8 3c 00 00 00       	mov    $0x3c,%eax
    3949:	83 c0 05             	add    $0x5,%eax
    394c:	89 45 a0             	mov    %eax,-0x60(%rbp)
    394f:	48 8b 05 4a 37 00 00 	mov    0x374a(%rip),%rax        # 70a0 <stdscr@NCURSES6_TINFO_5.0.19991023>
    3956:	ba 00 00 00 00       	mov    $0x0,%edx
    395b:	be 00 01 20 00       	mov    $0x200100,%esi
    3960:	48 89 c7             	mov    %rax,%rdi
    3963:	e8 08 eb ff ff       	call   2470 <_init+0x470>
    3968:	8b 45 a0             	mov    -0x60(%rbp),%eax
    396b:	48 8d 15 1d 19 00 00 	lea    0x191d(%rip),%rdx        # 528f <game_height+0x13f>
    3972:	89 c6                	mov    %eax,%esi
    3974:	bf 02 00 00 00       	mov    $0x2,%edi
    3979:	b8 00 00 00 00       	mov    $0x0,%eax
    397e:	e8 0d ea ff ff       	call   2390 <_init+0x390>
    3983:	48 8b 05 16 37 00 00 	mov    0x3716(%rip),%rax        # 70a0 <stdscr@NCURSES6_TINFO_5.0.19991023>
    398a:	ba 00 00 00 00       	mov    $0x0,%edx
    398f:	be 00 01 20 00       	mov    $0x200100,%esi
    3994:	48 89 c7             	mov    %rax,%rdi
    3997:	e8 34 ec ff ff       	call   25d0 <_init+0x5d0>
    399c:	48 8b 05 fd 36 00 00 	mov    0x36fd(%rip),%rax        # 70a0 <stdscr@NCURSES6_TINFO_5.0.19991023>
    39a3:	ba 00 00 00 00       	mov    $0x0,%edx
    39a8:	be 00 03 00 00       	mov    $0x300,%esi
    39ad:	48 89 c7             	mov    %rax,%rdi
    39b0:	e8 bb ea ff ff       	call   2470 <_init+0x470>
    39b5:	8b 45 a0             	mov    -0x60(%rbp),%eax
    39b8:	48 8d 15 f1 18 00 00 	lea    0x18f1(%rip),%rdx        # 52b0 <game_height+0x160>
    39bf:	89 c6                	mov    %eax,%esi
    39c1:	bf 03 00 00 00       	mov    $0x3,%edi
    39c6:	b8 00 00 00 00       	mov    $0x0,%eax
    39cb:	e8 c0 e9 ff ff       	call   2390 <_init+0x390>
    39d0:	48 8b 05 c9 36 00 00 	mov    0x36c9(%rip),%rax        # 70a0 <stdscr@NCURSES6_TINFO_5.0.19991023>
    39d7:	ba 00 00 00 00       	mov    $0x0,%edx
    39dc:	be 00 03 00 00       	mov    $0x300,%esi
    39e1:	48 89 c7             	mov    %rax,%rdi
    39e4:	e8 e7 eb ff ff       	call   25d0 <_init+0x5d0>
    39e9:	48 8b 05 b0 36 00 00 	mov    0x36b0(%rip),%rax        # 70a0 <stdscr@NCURSES6_TINFO_5.0.19991023>
    39f0:	ba 00 00 00 00       	mov    $0x0,%edx
    39f5:	be 00 06 00 00       	mov    $0x600,%esi
    39fa:	48 89 c7             	mov    %rax,%rdi
    39fd:	e8 6e ea ff ff       	call   2470 <_init+0x470>
    3a02:	8b 45 a0             	mov    -0x60(%rbp),%eax
    3a05:	48 8d 15 f6 18 00 00 	lea    0x18f6(%rip),%rdx        # 5302 <game_height+0x1b2>
    3a0c:	89 c6                	mov    %eax,%esi
    3a0e:	bf 05 00 00 00       	mov    $0x5,%edi
    3a13:	b8 00 00 00 00       	mov    $0x0,%eax
    3a18:	e8 73 e9 ff ff       	call   2390 <_init+0x390>
    3a1d:	48 8b 05 7c 36 00 00 	mov    0x367c(%rip),%rax        # 70a0 <stdscr@NCURSES6_TINFO_5.0.19991023>
    3a24:	ba 00 00 00 00       	mov    $0x0,%edx
    3a29:	be 00 06 00 00       	mov    $0x600,%esi
    3a2e:	48 89 c7             	mov    %rax,%rdi
    3a31:	e8 9a eb ff ff       	call   25d0 <_init+0x5d0>
    3a36:	48 8b 05 63 36 00 00 	mov    0x3663(%rip),%rax        # 70a0 <stdscr@NCURSES6_TINFO_5.0.19991023>
    3a3d:	ba 00 00 00 00       	mov    $0x0,%edx
    3a42:	be 00 01 20 00       	mov    $0x200100,%esi
    3a47:	48 89 c7             	mov    %rax,%rdi
    3a4a:	e8 21 ea ff ff       	call   2470 <_init+0x470>
    3a4f:	8b 05 6b 36 00 00    	mov    0x366b(%rip),%eax        # 70c0 <player_score>
    3a55:	89 c6                	mov    %eax,%esi
    3a57:	48 8d 05 b5 18 00 00 	lea    0x18b5(%rip),%rax        # 5313 <game_height+0x1c3>
    3a5e:	48 89 c7             	mov    %rax,%rdi
    3a61:	b8 00 00 00 00       	mov    $0x0,%eax
    3a66:	e8 f5 ea ff ff       	call   2560 <_init+0x560>
    3a6b:	48 8b 05 2e 36 00 00 	mov    0x362e(%rip),%rax        # 70a0 <stdscr@NCURSES6_TINFO_5.0.19991023>
    3a72:	ba 00 00 00 00       	mov    $0x0,%edx
    3a77:	be 00 01 20 00       	mov    $0x200100,%esi
    3a7c:	48 89 c7             	mov    %rax,%rdi
    3a7f:	e8 4c eb ff ff       	call   25d0 <_init+0x5d0>
    3a84:	48 8d 05 8b 18 00 00 	lea    0x188b(%rip),%rax        # 5316 <game_height+0x1c6>
    3a8b:	48 89 c7             	mov    %rax,%rdi
    3a8e:	b8 00 00 00 00       	mov    $0x0,%eax
    3a93:	e8 c8 ea ff ff       	call   2560 <_init+0x560>
    3a98:	48 8b 05 01 36 00 00 	mov    0x3601(%rip),%rax        # 70a0 <stdscr@NCURSES6_TINFO_5.0.19991023>
    3a9f:	ba 00 00 00 00       	mov    $0x0,%edx
    3aa4:	be 00 06 00 00       	mov    $0x600,%esi
    3aa9:	48 89 c7             	mov    %rax,%rdi
    3aac:	e8 bf e9 ff ff       	call   2470 <_init+0x470>
    3ab1:	8b 45 a0             	mov    -0x60(%rbp),%eax
    3ab4:	48 8d 15 64 18 00 00 	lea    0x1864(%rip),%rdx        # 531f <game_height+0x1cf>
    3abb:	89 c6                	mov    %eax,%esi
    3abd:	bf 06 00 00 00       	mov    $0x6,%edi
    3ac2:	b8 00 00 00 00       	mov    $0x0,%eax
    3ac7:	e8 c4 e8 ff ff       	call   2390 <_init+0x390>
    3acc:	48 8b 05 cd 35 00 00 	mov    0x35cd(%rip),%rax        # 70a0 <stdscr@NCURSES6_TINFO_5.0.19991023>
    3ad3:	ba 00 00 00 00       	mov    $0x0,%edx
    3ad8:	be 00 06 00 00       	mov    $0x600,%esi
    3add:	48 89 c7             	mov    %rax,%rdi
    3ae0:	e8 eb ea ff ff       	call   25d0 <_init+0x5d0>
    3ae5:	48 8b 05 b4 35 00 00 	mov    0x35b4(%rip),%rax        # 70a0 <stdscr@NCURSES6_TINFO_5.0.19991023>
    3aec:	ba 00 00 00 00       	mov    $0x0,%edx
    3af1:	be 00 03 20 00       	mov    $0x200300,%esi
    3af6:	48 89 c7             	mov    %rax,%rdi
    3af9:	e8 72 e9 ff ff       	call   2470 <_init+0x470>
    3afe:	8b 05 c0 35 00 00    	mov    0x35c0(%rip),%eax        # 70c4 <verified_score>
    3b04:	89 c6                	mov    %eax,%esi
    3b06:	48 8d 05 06 18 00 00 	lea    0x1806(%rip),%rax        # 5313 <game_height+0x1c3>
    3b0d:	48 89 c7             	mov    %rax,%rdi
    3b10:	b8 00 00 00 00       	mov    $0x0,%eax
    3b15:	e8 46 ea ff ff       	call   2560 <_init+0x560>
    3b1a:	48 8b 05 7f 35 00 00 	mov    0x357f(%rip),%rax        # 70a0 <stdscr@NCURSES6_TINFO_5.0.19991023>
    3b21:	ba 00 00 00 00       	mov    $0x0,%edx
    3b26:	be 00 03 20 00       	mov    $0x200300,%esi
    3b2b:	48 89 c7             	mov    %rax,%rdi
    3b2e:	e8 9d ea ff ff       	call   25d0 <_init+0x5d0>
    3b33:	8b 05 87 35 00 00    	mov    0x3587(%rip),%eax        # 70c0 <player_score>
    3b39:	66 0f ef c0          	pxor   %xmm0,%xmm0
    3b3d:	f2 0f 2a c0          	cvtsi2sd %eax,%xmm0
    3b41:	f2 0f 10 15 67 1d 00 	movsd  0x1d67(%rip),%xmm2        # 58b0 <game_height+0x760>
    3b48:	00 
    3b49:	66 0f 28 c8          	movapd %xmm0,%xmm1
    3b4d:	f2 0f 5e ca          	divsd  %xmm2,%xmm1
    3b51:	f2 0f 10 05 5f 1d 00 	movsd  0x1d5f(%rip),%xmm0        # 58b8 <game_height+0x768>
    3b58:	00 
    3b59:	f2 0f 59 c1          	mulsd  %xmm1,%xmm0
    3b5d:	f2 0f 11 45 b0       	movsd  %xmm0,-0x50(%rbp)
    3b62:	f2 0f 10 45 b0       	movsd  -0x50(%rbp),%xmm0
    3b67:	66 0f 2f 05 49 1d 00 	comisd 0x1d49(%rip),%xmm0        # 58b8 <game_height+0x768>
    3b6e:	00 
    3b6f:	76 0d                	jbe    3b7e <draw_game+0x6f6>
    3b71:	f2 0f 10 05 3f 1d 00 	movsd  0x1d3f(%rip),%xmm0        # 58b8 <game_height+0x768>
    3b78:	00 
    3b79:	f2 0f 11 45 b0       	movsd  %xmm0,-0x50(%rbp)
    3b7e:	c7 45 a4 0f 00 00 00 	movl   $0xf,-0x5c(%rbp)
    3b85:	8b 05 35 35 00 00    	mov    0x3535(%rip),%eax        # 70c0 <player_score>
    3b8b:	66 0f ef c0          	pxor   %xmm0,%xmm0
    3b8f:	f2 0f 2a c0          	cvtsi2sd %eax,%xmm0
    3b93:	f2 0f 10 15 15 1d 00 	movsd  0x1d15(%rip),%xmm2        # 58b0 <game_height+0x760>
    3b9a:	00 
    3b9b:	66 0f 28 c8          	movapd %xmm0,%xmm1
    3b9f:	f2 0f 5e ca          	divsd  %xmm2,%xmm1
    3ba3:	66 0f ef c0          	pxor   %xmm0,%xmm0
    3ba7:	f2 0f 2a 45 a4       	cvtsi2sdl -0x5c(%rbp),%xmm0
    3bac:	f2 0f 59 c1          	mulsd  %xmm1,%xmm0
    3bb0:	f2 0f 2c c0          	cvttsd2si %xmm0,%eax
    3bb4:	89 45 94             	mov    %eax,-0x6c(%rbp)
    3bb7:	8b 45 94             	mov    -0x6c(%rbp),%eax
    3bba:	3b 45 a4             	cmp    -0x5c(%rbp),%eax
    3bbd:	7e 06                	jle    3bc5 <draw_game+0x73d>
    3bbf:	8b 45 a4             	mov    -0x5c(%rbp),%eax
    3bc2:	89 45 94             	mov    %eax,-0x6c(%rbp)
    3bc5:	48 8b 05 d4 34 00 00 	mov    0x34d4(%rip),%rax        # 70a0 <stdscr@NCURSES6_TINFO_5.0.19991023>
    3bcc:	ba 00 00 00 00       	mov    $0x0,%edx
    3bd1:	be 00 06 00 00       	mov    $0x600,%esi
    3bd6:	48 89 c7             	mov    %rax,%rdi
    3bd9:	e8 92 e8 ff ff       	call   2470 <_init+0x470>
    3bde:	8b 45 a0             	mov    -0x60(%rbp),%eax
    3be1:	48 8d 15 48 17 00 00 	lea    0x1748(%rip),%rdx        # 5330 <game_height+0x1e0>
    3be8:	89 c6                	mov    %eax,%esi
    3bea:	bf 08 00 00 00       	mov    $0x8,%edi
    3bef:	b8 00 00 00 00       	mov    $0x0,%eax
    3bf4:	e8 97 e7 ff ff       	call   2390 <_init+0x390>
    3bf9:	48 8b 05 a0 34 00 00 	mov    0x34a0(%rip),%rax        # 70a0 <stdscr@NCURSES6_TINFO_5.0.19991023>
    3c00:	ba 00 00 00 00       	mov    $0x0,%edx
    3c05:	be 00 06 00 00       	mov    $0x600,%esi
    3c0a:	48 89 c7             	mov    %rax,%rdi
    3c0d:	e8 be e9 ff ff       	call   25d0 <_init+0x5d0>
    3c12:	48 8b 05 87 34 00 00 	mov    0x3487(%rip),%rax        # 70a0 <stdscr@NCURSES6_TINFO_5.0.19991023>
    3c19:	ba 00 00 00 00       	mov    $0x0,%edx
    3c1e:	be 00 01 20 00       	mov    $0x200100,%esi
    3c23:	48 89 c7             	mov    %rax,%rdi
    3c26:	e8 45 e8 ff ff       	call   2470 <_init+0x470>
    3c2b:	48 8d 05 0f 17 00 00 	lea    0x170f(%rip),%rax        # 5341 <game_height+0x1f1>
    3c32:	48 89 c7             	mov    %rax,%rdi
    3c35:	b8 00 00 00 00       	mov    $0x0,%eax
    3c3a:	e8 21 e9 ff ff       	call   2560 <_init+0x560>
    3c3f:	c7 45 98 00 00 00 00 	movl   $0x0,-0x68(%rbp)
    3c46:	eb 36                	jmp    3c7e <draw_game+0x7f6>
    3c48:	8b 45 98             	mov    -0x68(%rbp),%eax
    3c4b:	3b 45 94             	cmp    -0x6c(%rbp),%eax
    3c4e:	7d 16                	jge    3c66 <draw_game+0x7de>
    3c50:	48 8d 05 24 16 00 00 	lea    0x1624(%rip),%rax        # 527b <game_height+0x12b>
    3c57:	48 89 c7             	mov    %rax,%rdi
    3c5a:	b8 00 00 00 00       	mov    $0x0,%eax
    3c5f:	e8 fc e8 ff ff       	call   2560 <_init+0x560>
    3c64:	eb 14                	jmp    3c7a <draw_game+0x7f2>
    3c66:	48 8d 05 d6 16 00 00 	lea    0x16d6(%rip),%rax        # 5343 <game_height+0x1f3>
    3c6d:	48 89 c7             	mov    %rax,%rdi
    3c70:	b8 00 00 00 00       	mov    $0x0,%eax
    3c75:	e8 e6 e8 ff ff       	call   2560 <_init+0x560>
    3c7a:	83 45 98 01          	addl   $0x1,-0x68(%rbp)
    3c7e:	8b 45 98             	mov    -0x68(%rbp),%eax
    3c81:	3b 45 a4             	cmp    -0x5c(%rbp),%eax
    3c84:	7c c2                	jl     3c48 <draw_game+0x7c0>
    3c86:	48 8b 45 b0          	mov    -0x50(%rbp),%rax
    3c8a:	66 48 0f 6e c0       	movq   %rax,%xmm0
    3c8f:	48 8d 05 b1 16 00 00 	lea    0x16b1(%rip),%rax        # 5347 <game_height+0x1f7>
    3c96:	48 89 c7             	mov    %rax,%rdi
    3c99:	b8 01 00 00 00       	mov    $0x1,%eax
    3c9e:	e8 bd e8 ff ff       	call   2560 <_init+0x560>
    3ca3:	48 8b 05 f6 33 00 00 	mov    0x33f6(%rip),%rax        # 70a0 <stdscr@NCURSES6_TINFO_5.0.19991023>
    3caa:	ba 00 00 00 00       	mov    $0x0,%edx
    3caf:	be 00 01 20 00       	mov    $0x200100,%esi
    3cb4:	48 89 c7             	mov    %rax,%rdi
    3cb7:	e8 14 e9 ff ff       	call   25d0 <_init+0x5d0>
    3cbc:	48 8b 05 dd 33 00 00 	mov    0x33dd(%rip),%rax        # 70a0 <stdscr@NCURSES6_TINFO_5.0.19991023>
    3cc3:	ba 00 00 00 00       	mov    $0x0,%edx
    3cc8:	be 00 03 00 00       	mov    $0x300,%esi
    3ccd:	48 89 c7             	mov    %rax,%rdi
    3cd0:	e8 9b e7 ff ff       	call   2470 <_init+0x470>
    3cd5:	8b 45 a0             	mov    -0x60(%rbp),%eax
    3cd8:	48 8d 15 71 16 00 00 	lea    0x1671(%rip),%rdx        # 5350 <game_height+0x200>
    3cdf:	89 c6                	mov    %eax,%esi
    3ce1:	bf 0a 00 00 00       	mov    $0xa,%edi
    3ce6:	b8 00 00 00 00       	mov    $0x0,%eax
    3ceb:	e8 a0 e6 ff ff       	call   2390 <_init+0x390>
    3cf0:	48 8b 05 a9 33 00 00 	mov    0x33a9(%rip),%rax        # 70a0 <stdscr@NCURSES6_TINFO_5.0.19991023>
    3cf7:	ba 00 00 00 00       	mov    $0x0,%edx
    3cfc:	be 00 03 00 00       	mov    $0x300,%esi
    3d01:	48 89 c7             	mov    %rax,%rdi
    3d04:	e8 c7 e8 ff ff       	call   25d0 <_init+0x5d0>
    3d09:	48 8b 05 90 33 00 00 	mov    0x3390(%rip),%rax        # 70a0 <stdscr@NCURSES6_TINFO_5.0.19991023>
    3d10:	ba 00 00 00 00       	mov    $0x0,%edx
    3d15:	be 00 05 20 00       	mov    $0x200500,%esi
    3d1a:	48 89 c7             	mov    %rax,%rdi
    3d1d:	e8 4e e7 ff ff       	call   2470 <_init+0x470>
    3d22:	8b 45 a0             	mov    -0x60(%rbp),%eax
    3d25:	48 8d 15 76 16 00 00 	lea    0x1676(%rip),%rdx        # 53a2 <game_height+0x252>
    3d2c:	89 c6                	mov    %eax,%esi
    3d2e:	bf 0c 00 00 00       	mov    $0xc,%edi
    3d33:	b8 00 00 00 00       	mov    $0x0,%eax
    3d38:	e8 53 e6 ff ff       	call   2390 <_init+0x390>
    3d3d:	48 8b 05 5c 33 00 00 	mov    0x335c(%rip),%rax        # 70a0 <stdscr@NCURSES6_TINFO_5.0.19991023>
    3d44:	ba 00 00 00 00       	mov    $0x0,%edx
    3d49:	be 00 05 20 00       	mov    $0x200500,%esi
    3d4e:	48 89 c7             	mov    %rax,%rdi
    3d51:	e8 7a e8 ff ff       	call   25d0 <_init+0x5d0>
    3d56:	48 8b 05 43 33 00 00 	mov    0x3343(%rip),%rax        # 70a0 <stdscr@NCURSES6_TINFO_5.0.19991023>
    3d5d:	ba 00 00 00 00       	mov    $0x0,%edx
    3d62:	be 00 06 00 00       	mov    $0x600,%esi
    3d67:	48 89 c7             	mov    %rax,%rdi
    3d6a:	e8 01 e7 ff ff       	call   2470 <_init+0x470>
    3d6f:	8b 45 a0             	mov    -0x60(%rbp),%eax
    3d72:	48 8d 15 33 16 00 00 	lea    0x1633(%rip),%rdx        # 53ac <game_height+0x25c>
    3d79:	89 c6                	mov    %eax,%esi
    3d7b:	bf 0d 00 00 00       	mov    $0xd,%edi
    3d80:	b8 00 00 00 00       	mov    $0x0,%eax
    3d85:	e8 06 e6 ff ff       	call   2390 <_init+0x390>
    3d8a:	8b 45 a0             	mov    -0x60(%rbp),%eax
    3d8d:	48 8d 15 36 16 00 00 	lea    0x1636(%rip),%rdx        # 53ca <game_height+0x27a>
    3d94:	89 c6                	mov    %eax,%esi
    3d96:	bf 0e 00 00 00       	mov    $0xe,%edi
    3d9b:	b8 00 00 00 00       	mov    $0x0,%eax
    3da0:	e8 eb e5 ff ff       	call   2390 <_init+0x390>
    3da5:	48 8b 05 f4 32 00 00 	mov    0x32f4(%rip),%rax        # 70a0 <stdscr@NCURSES6_TINFO_5.0.19991023>
    3dac:	ba 00 00 00 00       	mov    $0x0,%edx
    3db1:	be 00 06 00 00       	mov    $0x600,%esi
    3db6:	48 89 c7             	mov    %rax,%rdi
    3db9:	e8 12 e8 ff ff       	call   25d0 <_init+0x5d0>
    3dbe:	48 8b 05 db 32 00 00 	mov    0x32db(%rip),%rax        # 70a0 <stdscr@NCURSES6_TINFO_5.0.19991023>
    3dc5:	ba 00 00 00 00       	mov    $0x0,%edx
    3dca:	be 00 05 20 00       	mov    $0x200500,%esi
    3dcf:	48 89 c7             	mov    %rax,%rdi
    3dd2:	e8 99 e6 ff ff       	call   2470 <_init+0x470>
    3dd7:	8b 45 a0             	mov    -0x60(%rbp),%eax
    3dda:	48 8d 15 fc 15 00 00 	lea    0x15fc(%rip),%rdx        # 53dd <game_height+0x28d>
    3de1:	89 c6                	mov    %eax,%esi
    3de3:	bf 10 00 00 00       	mov    $0x10,%edi
    3de8:	b8 00 00 00 00       	mov    $0x0,%eax
    3ded:	e8 9e e5 ff ff       	call   2390 <_init+0x390>
    3df2:	48 8b 05 a7 32 00 00 	mov    0x32a7(%rip),%rax        # 70a0 <stdscr@NCURSES6_TINFO_5.0.19991023>
    3df9:	ba 00 00 00 00       	mov    $0x0,%edx
    3dfe:	be 00 05 20 00       	mov    $0x200500,%esi
    3e03:	48 89 c7             	mov    %rax,%rdi
    3e06:	e8 c5 e7 ff ff       	call   25d0 <_init+0x5d0>
    3e0b:	48 8b 05 8e 32 00 00 	mov    0x328e(%rip),%rax        # 70a0 <stdscr@NCURSES6_TINFO_5.0.19991023>
    3e12:	ba 00 00 00 00       	mov    $0x0,%edx
    3e17:	be 00 06 00 00       	mov    $0x600,%esi
    3e1c:	48 89 c7             	mov    %rax,%rdi
    3e1f:	e8 4c e6 ff ff       	call   2470 <_init+0x470>
    3e24:	8b 45 a0             	mov    -0x60(%rbp),%eax
    3e27:	48 8d 15 b8 15 00 00 	lea    0x15b8(%rip),%rdx        # 53e6 <game_height+0x296>
    3e2e:	89 c6                	mov    %eax,%esi
    3e30:	bf 11 00 00 00       	mov    $0x11,%edi
    3e35:	b8 00 00 00 00       	mov    $0x0,%eax
    3e3a:	e8 51 e5 ff ff       	call   2390 <_init+0x390>
    3e3f:	48 8b 05 5a 32 00 00 	mov    0x325a(%rip),%rax        # 70a0 <stdscr@NCURSES6_TINFO_5.0.19991023>
    3e46:	ba 00 00 00 00       	mov    $0x0,%edx
    3e4b:	be 00 06 00 00       	mov    $0x600,%esi
    3e50:	48 89 c7             	mov    %rax,%rdi
    3e53:	e8 78 e7 ff ff       	call   25d0 <_init+0x5d0>
    3e58:	48 8b 05 41 32 00 00 	mov    0x3241(%rip),%rax        # 70a0 <stdscr@NCURSES6_TINFO_5.0.19991023>
    3e5f:	ba 00 00 00 00       	mov    $0x0,%edx
    3e64:	be 00 03 20 00       	mov    $0x200300,%esi
    3e69:	48 89 c7             	mov    %rax,%rdi
    3e6c:	e8 ff e5 ff ff       	call   2470 <_init+0x470>
    3e71:	8b 45 a0             	mov    -0x60(%rbp),%eax
    3e74:	48 8d 15 81 15 00 00 	lea    0x1581(%rip),%rdx        # 53fc <game_height+0x2ac>
    3e7b:	89 c6                	mov    %eax,%esi
    3e7d:	bf 13 00 00 00       	mov    $0x13,%edi
    3e82:	b8 00 00 00 00       	mov    $0x0,%eax
    3e87:	e8 04 e5 ff ff       	call   2390 <_init+0x390>
    3e8c:	48 8b 05 0d 32 00 00 	mov    0x320d(%rip),%rax        # 70a0 <stdscr@NCURSES6_TINFO_5.0.19991023>
    3e93:	ba 00 00 00 00       	mov    $0x0,%edx
    3e98:	be 00 03 20 00       	mov    $0x200300,%esi
    3e9d:	48 89 c7             	mov    %rax,%rdi
    3ea0:	e8 2b e7 ff ff       	call   25d0 <_init+0x5d0>
    3ea5:	48 8b 05 f4 31 00 00 	mov    0x31f4(%rip),%rax        # 70a0 <stdscr@NCURSES6_TINFO_5.0.19991023>
    3eac:	48 89 c7             	mov    %rax,%rdi
    3eaf:	e8 cc e5 ff ff       	call   2480 <_init+0x480>
    3eb4:	90                   	nop
    3eb5:	48 8b 45 f8          	mov    -0x8(%rbp),%rax
    3eb9:	64 48 2b 04 25 28 00 	sub    %fs:0x28,%rax
    3ec0:	00 00 
    3ec2:	74 05                	je     3ec9 <draw_game+0xa41>
    3ec4:	e8 37 e6 ff ff       	call   2500 <_init+0x500>
    3ec9:	c9                   	leave  
    3eca:	c3                   	ret    

0000000000003ecb <update_game>:
    3ecb:	f3 0f 1e fa          	endbr64 
    3ecf:	55                   	push   %rbp
    3ed0:	48 89 e5             	mov    %rsp,%rbp
    3ed3:	48 83 ec 10          	sub    $0x10,%rsp
    3ed7:	8b 05 a3 31 00 00    	mov    0x31a3(%rip),%eax        # 7080 <snake_length>
    3edd:	83 e8 01             	sub    $0x1,%eax
    3ee0:	48 98                	cltq   
    3ee2:	48 8d 14 85 00 00 00 	lea    0x0(,%rax,4),%rdx
    3ee9:	00 
    3eea:	48 8d 05 ef 31 00 00 	lea    0x31ef(%rip),%rax        # 70e0 <snake_x>
    3ef1:	8b 04 02             	mov    (%rdx,%rax,1),%eax
    3ef4:	89 45 f8             	mov    %eax,-0x8(%rbp)
    3ef7:	8b 05 83 31 00 00    	mov    0x3183(%rip),%eax        # 7080 <snake_length>
    3efd:	83 e8 01             	sub    $0x1,%eax
    3f00:	48 98                	cltq   
    3f02:	48 8d 14 85 00 00 00 	lea    0x0(,%rax,4),%rdx
    3f09:	00 
    3f0a:	48 8d 05 ef 58 00 00 	lea    0x58ef(%rip),%rax        # 9800 <snake_y>
    3f11:	8b 04 02             	mov    (%rdx,%rax,1),%eax
    3f14:	89 45 fc             	mov    %eax,-0x4(%rbp)
    3f17:	8b 05 63 31 00 00    	mov    0x3163(%rip),%eax        # 7080 <snake_length>
    3f1d:	83 e8 01             	sub    $0x1,%eax
    3f20:	89 45 f0             	mov    %eax,-0x10(%rbp)
    3f23:	eb 68                	jmp    3f8d <update_game+0xc2>
    3f25:	8b 45 f0             	mov    -0x10(%rbp),%eax
    3f28:	83 e8 01             	sub    $0x1,%eax
    3f2b:	48 98                	cltq   
    3f2d:	48 8d 14 85 00 00 00 	lea    0x0(,%rax,4),%rdx
    3f34:	00 
    3f35:	48 8d 05 a4 31 00 00 	lea    0x31a4(%rip),%rax        # 70e0 <snake_x>
    3f3c:	8b 04 02             	mov    (%rdx,%rax,1),%eax
    3f3f:	8b 55 f0             	mov    -0x10(%rbp),%edx
    3f42:	48 63 d2             	movslq %edx,%rdx
    3f45:	48 8d 0c 95 00 00 00 	lea    0x0(,%rdx,4),%rcx
    3f4c:	00 
    3f4d:	48 8d 15 8c 31 00 00 	lea    0x318c(%rip),%rdx        # 70e0 <snake_x>
    3f54:	89 04 11             	mov    %eax,(%rcx,%rdx,1)
    3f57:	8b 45 f0             	mov    -0x10(%rbp),%eax
    3f5a:	83 e8 01             	sub    $0x1,%eax
    3f5d:	48 98                	cltq   
    3f5f:	48 8d 14 85 00 00 00 	lea    0x0(,%rax,4),%rdx
    3f66:	00 
    3f67:	48 8d 05 92 58 00 00 	lea    0x5892(%rip),%rax        # 9800 <snake_y>
    3f6e:	8b 04 02             	mov    (%rdx,%rax,1),%eax
    3f71:	8b 55 f0             	mov    -0x10(%rbp),%edx
    3f74:	48 63 d2             	movslq %edx,%rdx
    3f77:	48 8d 0c 95 00 00 00 	lea    0x0(,%rdx,4),%rcx
    3f7e:	00 
    3f7f:	48 8d 15 7a 58 00 00 	lea    0x587a(%rip),%rdx        # 9800 <snake_y>
    3f86:	89 04 11             	mov    %eax,(%rcx,%rdx,1)
    3f89:	83 6d f0 01          	subl   $0x1,-0x10(%rbp)
    3f8d:	83 7d f0 00          	cmpl   $0x0,-0x10(%rbp)
    3f91:	7f 92                	jg     3f25 <update_game+0x5a>
    3f93:	8b 05 eb 30 00 00    	mov    0x30eb(%rip),%eax        # 7084 <direction>
    3f99:	83 f8 03             	cmp    $0x3,%eax
    3f9c:	74 4d                	je     3feb <update_game+0x120>
    3f9e:	83 f8 03             	cmp    $0x3,%eax
    3fa1:	7f 58                	jg     3ffb <update_game+0x130>
    3fa3:	83 f8 02             	cmp    $0x2,%eax
    3fa6:	74 32                	je     3fda <update_game+0x10f>
    3fa8:	83 f8 02             	cmp    $0x2,%eax
    3fab:	7f 4e                	jg     3ffb <update_game+0x130>
    3fad:	85 c0                	test   %eax,%eax
    3faf:	74 07                	je     3fb8 <update_game+0xed>
    3fb1:	83 f8 01             	cmp    $0x1,%eax
    3fb4:	74 13                	je     3fc9 <update_game+0xfe>
    3fb6:	eb 43                	jmp    3ffb <update_game+0x130>
    3fb8:	8b 05 42 58 00 00    	mov    0x5842(%rip),%eax        # 9800 <snake_y>
    3fbe:	83 e8 01             	sub    $0x1,%eax
    3fc1:	89 05 39 58 00 00    	mov    %eax,0x5839(%rip)        # 9800 <snake_y>
    3fc7:	eb 32                	jmp    3ffb <update_game+0x130>
    3fc9:	8b 05 31 58 00 00    	mov    0x5831(%rip),%eax        # 9800 <snake_y>
    3fcf:	83 c0 01             	add    $0x1,%eax
    3fd2:	89 05 28 58 00 00    	mov    %eax,0x5828(%rip)        # 9800 <snake_y>
    3fd8:	eb 21                	jmp    3ffb <update_game+0x130>
    3fda:	8b 05 00 31 00 00    	mov    0x3100(%rip),%eax        # 70e0 <snake_x>
    3fe0:	83 e8 01             	sub    $0x1,%eax
    3fe3:	89 05 f7 30 00 00    	mov    %eax,0x30f7(%rip)        # 70e0 <snake_x>
    3fe9:	eb 10                	jmp    3ffb <update_game+0x130>
    3feb:	8b 05 ef 30 00 00    	mov    0x30ef(%rip),%eax        # 70e0 <snake_x>
    3ff1:	83 c0 01             	add    $0x1,%eax
    3ff4:	89 05 e6 30 00 00    	mov    %eax,0x30e6(%rip)        # 70e0 <snake_x>
    3ffa:	90                   	nop
    3ffb:	8b 05 df 30 00 00    	mov    0x30df(%rip),%eax        # 70e0 <snake_x>
    4001:	85 c0                	test   %eax,%eax
    4003:	7e 2e                	jle    4033 <update_game+0x168>
    4005:	8b 15 d5 30 00 00    	mov    0x30d5(%rip),%edx        # 70e0 <snake_x>
    400b:	b8 3c 00 00 00       	mov    $0x3c,%eax
    4010:	83 e8 01             	sub    $0x1,%eax
    4013:	39 c2                	cmp    %eax,%edx
    4015:	7d 1c                	jge    4033 <update_game+0x168>
    4017:	8b 05 e3 57 00 00    	mov    0x57e3(%rip),%eax        # 9800 <snake_y>
    401d:	85 c0                	test   %eax,%eax
    401f:	7e 12                	jle    4033 <update_game+0x168>
    4021:	8b 15 d9 57 00 00    	mov    0x57d9(%rip),%edx        # 9800 <snake_y>
    4027:	b8 14 00 00 00       	mov    $0x14,%eax
    402c:	83 e8 01             	sub    $0x1,%eax
    402f:	39 c2                	cmp    %eax,%edx
    4031:	7c 0f                	jl     4042 <update_game+0x177>
    4033:	c7 05 db 7e 00 00 01 	movl   $0x1,0x7edb(%rip)        # bf18 <game_over>
    403a:	00 00 00 
    403d:	e9 3b 01 00 00       	jmp    417d <update_game+0x2b2>
    4042:	c7 45 f4 01 00 00 00 	movl   $0x1,-0xc(%rbp)
    4049:	eb 55                	jmp    40a0 <update_game+0x1d5>
    404b:	8b 15 8f 30 00 00    	mov    0x308f(%rip),%edx        # 70e0 <snake_x>
    4051:	8b 45 f4             	mov    -0xc(%rbp),%eax
    4054:	48 98                	cltq   
    4056:	48 8d 0c 85 00 00 00 	lea    0x0(,%rax,4),%rcx
    405d:	00 
    405e:	48 8d 05 7b 30 00 00 	lea    0x307b(%rip),%rax        # 70e0 <snake_x>
    4065:	8b 04 01             	mov    (%rcx,%rax,1),%eax
    4068:	39 c2                	cmp    %eax,%edx
    406a:	75 30                	jne    409c <update_game+0x1d1>
    406c:	8b 15 8e 57 00 00    	mov    0x578e(%rip),%edx        # 9800 <snake_y>
    4072:	8b 45 f4             	mov    -0xc(%rbp),%eax
    4075:	48 98                	cltq   
    4077:	48 8d 0c 85 00 00 00 	lea    0x0(,%rax,4),%rcx
    407e:	00 
    407f:	48 8d 05 7a 57 00 00 	lea    0x577a(%rip),%rax        # 9800 <snake_y>
    4086:	8b 04 01             	mov    (%rcx,%rax,1),%eax
    4089:	39 c2                	cmp    %eax,%edx
    408b:	75 0f                	jne    409c <update_game+0x1d1>
    408d:	c7 05 81 7e 00 00 01 	movl   $0x1,0x7e81(%rip)        # bf18 <game_over>
    4094:	00 00 00 
    4097:	e9 e1 00 00 00       	jmp    417d <update_game+0x2b2>
    409c:	83 45 f4 01          	addl   $0x1,-0xc(%rbp)
    40a0:	8b 05 da 2f 00 00    	mov    0x2fda(%rip),%eax        # 7080 <snake_length>
    40a6:	39 45 f4             	cmp    %eax,-0xc(%rbp)
    40a9:	7c a0                	jl     404b <update_game+0x180>
    40ab:	8b 15 2f 30 00 00    	mov    0x302f(%rip),%edx        # 70e0 <snake_x>
    40b1:	8b 05 59 7e 00 00    	mov    0x7e59(%rip),%eax        # bf10 <food_x>
    40b7:	39 c2                	cmp    %eax,%edx
    40b9:	0f 85 be 00 00 00    	jne    417d <update_game+0x2b2>
    40bf:	8b 15 3b 57 00 00    	mov    0x573b(%rip),%edx        # 9800 <snake_y>
    40c5:	8b 05 49 7e 00 00    	mov    0x7e49(%rip),%eax        # bf14 <food_y>
    40cb:	39 c2                	cmp    %eax,%edx
    40cd:	0f 85 aa 00 00 00    	jne    417d <update_game+0x2b2>
    40d3:	8b 05 e7 2f 00 00    	mov    0x2fe7(%rip),%eax        # 70c0 <player_score>
    40d9:	83 c0 01             	add    $0x1,%eax
    40dc:	89 05 de 2f 00 00    	mov    %eax,0x2fde(%rip)        # 70c0 <player_score>
    40e2:	8b 05 dc 2f 00 00    	mov    0x2fdc(%rip),%eax        # 70c4 <verified_score>
    40e8:	83 c0 01             	add    $0x1,%eax
    40eb:	89 05 d3 2f 00 00    	mov    %eax,0x2fd3(%rip)        # 70c4 <verified_score>
    40f1:	8b 05 89 2f 00 00    	mov    0x2f89(%rip),%eax        # 7080 <snake_length>
    40f7:	3d 5f 09 00 00       	cmp    $0x95f,%eax
    40fc:	7f 4f                	jg     414d <update_game+0x282>
    40fe:	8b 05 7c 2f 00 00    	mov    0x2f7c(%rip),%eax        # 7080 <snake_length>
    4104:	83 c0 01             	add    $0x1,%eax
    4107:	89 05 73 2f 00 00    	mov    %eax,0x2f73(%rip)        # 7080 <snake_length>
    410d:	8b 05 6d 2f 00 00    	mov    0x2f6d(%rip),%eax        # 7080 <snake_length>
    4113:	83 e8 01             	sub    $0x1,%eax
    4116:	48 98                	cltq   
    4118:	48 8d 0c 85 00 00 00 	lea    0x0(,%rax,4),%rcx
    411f:	00 
    4120:	48 8d 15 b9 2f 00 00 	lea    0x2fb9(%rip),%rdx        # 70e0 <snake_x>
    4127:	8b 45 f8             	mov    -0x8(%rbp),%eax
    412a:	89 04 11             	mov    %eax,(%rcx,%rdx,1)
    412d:	8b 05 4d 2f 00 00    	mov    0x2f4d(%rip),%eax        # 7080 <snake_length>
    4133:	83 e8 01             	sub    $0x1,%eax
    4136:	48 98                	cltq   
    4138:	48 8d 0c 85 00 00 00 	lea    0x0(,%rax,4),%rcx
    413f:	00 
    4140:	48 8d 15 b9 56 00 00 	lea    0x56b9(%rip),%rdx        # 9800 <snake_y>
    4147:	8b 45 fc             	mov    -0x4(%rbp),%eax
    414a:	89 04 11             	mov    %eax,(%rcx,%rdx,1)
    414d:	8b 05 6d 2f 00 00    	mov    0x2f6d(%rip),%eax        # 70c0 <player_score>
    4153:	3d 0f 27 00 00       	cmp    $0x270f,%eax
    4158:	7e 19                	jle    4173 <update_game+0x2a8>
    415a:	8b 05 64 2f 00 00    	mov    0x2f64(%rip),%eax        # 70c4 <verified_score>
    4160:	3d 0f 27 00 00       	cmp    $0x270f,%eax
    4165:	7e 0c                	jle    4173 <update_game+0x2a8>
    4167:	b8 00 00 00 00       	mov    $0x0,%eax
    416c:	e8 a2 ec ff ff       	call   2e13 <Winner_price>
    4171:	eb 0a                	jmp    417d <update_game+0x2b2>
    4173:	b8 00 00 00 00       	mov    $0x0,%eax
    4178:	e8 84 f1 ff ff       	call   3301 <spawn_food>
    417d:	c9                   	leave  
    417e:	c3                   	ret    

000000000000417f <show_menu>:
    417f:	f3 0f 1e fa          	endbr64 
    4183:	55                   	push   %rbp
    4184:	48 89 e5             	mov    %rsp,%rbp
    4187:	48 83 ec 40          	sub    $0x40,%rsp
    418b:	64 48 8b 04 25 28 00 	mov    %fs:0x28,%rax
    4192:	00 00 
    4194:	48 89 45 f8          	mov    %rax,-0x8(%rbp)
    4198:	31 c0                	xor    %eax,%eax
    419a:	c7 45 c8 00 00 00 00 	movl   $0x0,-0x38(%rbp)
    41a1:	48 8d 05 6d 12 00 00 	lea    0x126d(%rip),%rax        # 5415 <game_height+0x2c5>
    41a8:	48 89 45 e0          	mov    %rax,-0x20(%rbp)
    41ac:	48 8d 05 6d 12 00 00 	lea    0x126d(%rip),%rax        # 5420 <game_height+0x2d0>
    41b3:	48 89 45 e8          	mov    %rax,-0x18(%rbp)
    41b7:	c7 45 d0 02 00 00 00 	movl   $0x2,-0x30(%rbp)
    41be:	48 8b 05 db 2e 00 00 	mov    0x2edb(%rip),%rax        # 70a0 <stdscr@NCURSES6_TINFO_5.0.19991023>
    41c5:	48 89 c7             	mov    %rax,%rdi
    41c8:	e8 c3 e2 ff ff       	call   2490 <_init+0x490>
    41cd:	48 8b 05 cc 2e 00 00 	mov    0x2ecc(%rip),%rax        # 70a0 <stdscr@NCURSES6_TINFO_5.0.19991023>
    41d4:	48 89 c7             	mov    %rax,%rdi
    41d7:	e8 d4 e3 ff ff       	call   25b0 <_init+0x5b0>
    41dc:	89 45 d4             	mov    %eax,-0x2c(%rbp)
    41df:	48 8b 05 ba 2e 00 00 	mov    0x2eba(%rip),%rax        # 70a0 <stdscr@NCURSES6_TINFO_5.0.19991023>
    41e6:	48 89 c7             	mov    %rax,%rdi
    41e9:	e8 12 e2 ff ff       	call   2400 <_init+0x400>
    41ee:	89 45 d8             	mov    %eax,-0x28(%rbp)
    41f1:	48 8b 05 a8 2e 00 00 	mov    0x2ea8(%rip),%rax        # 70a0 <stdscr@NCURSES6_TINFO_5.0.19991023>
    41f8:	ba 00 00 00 00       	mov    $0x0,%edx
    41fd:	be 00 01 20 00       	mov    $0x200100,%esi
    4202:	48 89 c7             	mov    %rax,%rdi
    4205:	e8 66 e2 ff ff       	call   2470 <_init+0x470>
    420a:	8b 45 d8             	mov    -0x28(%rbp),%eax
    420d:	89 c2                	mov    %eax,%edx
    420f:	c1 ea 1f             	shr    $0x1f,%edx
    4212:	01 d0                	add    %edx,%eax
    4214:	d1 f8                	sar    %eax
    4216:	8d 48 e7             	lea    -0x19(%rax),%ecx
    4219:	8b 45 d4             	mov    -0x2c(%rbp),%eax
    421c:	89 c2                	mov    %eax,%edx
    421e:	c1 ea 1f             	shr    $0x1f,%edx
    4221:	01 d0                	add    %edx,%eax
    4223:	d1 f8                	sar    %eax
    4225:	83 e8 06             	sub    $0x6,%eax
    4228:	48 8d 15 f9 11 00 00 	lea    0x11f9(%rip),%rdx        # 5428 <game_height+0x2d8>
    422f:	89 ce                	mov    %ecx,%esi
    4231:	89 c7                	mov    %eax,%edi
    4233:	b8 00 00 00 00       	mov    $0x0,%eax
    4238:	e8 53 e1 ff ff       	call   2390 <_init+0x390>
    423d:	8b 45 d8             	mov    -0x28(%rbp),%eax
    4240:	89 c2                	mov    %eax,%edx
    4242:	c1 ea 1f             	shr    $0x1f,%edx
    4245:	01 d0                	add    %edx,%eax
    4247:	d1 f8                	sar    %eax
    4249:	8d 48 e7             	lea    -0x19(%rax),%ecx
    424c:	8b 45 d4             	mov    -0x2c(%rbp),%eax
    424f:	89 c2                	mov    %eax,%edx
    4251:	c1 ea 1f             	shr    $0x1f,%edx
    4254:	01 d0                	add    %edx,%eax
    4256:	d1 f8                	sar    %eax
    4258:	83 e8 05             	sub    $0x5,%eax
    425b:	48 8d 15 3e 12 00 00 	lea    0x123e(%rip),%rdx        # 54a0 <game_height+0x350>
    4262:	89 ce                	mov    %ecx,%esi
    4264:	89 c7                	mov    %eax,%edi
    4266:	b8 00 00 00 00       	mov    $0x0,%eax
    426b:	e8 20 e1 ff ff       	call   2390 <_init+0x390>
    4270:	8b 45 d8             	mov    -0x28(%rbp),%eax
    4273:	89 c2                	mov    %eax,%edx
    4275:	c1 ea 1f             	shr    $0x1f,%edx
    4278:	01 d0                	add    %edx,%eax
    427a:	d1 f8                	sar    %eax
    427c:	8d 48 e7             	lea    -0x19(%rax),%ecx
    427f:	8b 45 d4             	mov    -0x2c(%rbp),%eax
    4282:	89 c2                	mov    %eax,%edx
    4284:	c1 ea 1f             	shr    $0x1f,%edx
    4287:	01 d0                	add    %edx,%eax
    4289:	d1 f8                	sar    %eax
    428b:	83 e8 04             	sub    $0x4,%eax
    428e:	48 8d 15 8b 12 00 00 	lea    0x128b(%rip),%rdx        # 5520 <game_height+0x3d0>
    4295:	89 ce                	mov    %ecx,%esi
    4297:	89 c7                	mov    %eax,%edi
    4299:	b8 00 00 00 00       	mov    $0x0,%eax
    429e:	e8 ed e0 ff ff       	call   2390 <_init+0x390>
    42a3:	8b 45 d8             	mov    -0x28(%rbp),%eax
    42a6:	89 c2                	mov    %eax,%edx
    42a8:	c1 ea 1f             	shr    $0x1f,%edx
    42ab:	01 d0                	add    %edx,%eax
    42ad:	d1 f8                	sar    %eax
    42af:	8d 48 e7             	lea    -0x19(%rax),%ecx
    42b2:	8b 45 d4             	mov    -0x2c(%rbp),%eax
    42b5:	89 c2                	mov    %eax,%edx
    42b7:	c1 ea 1f             	shr    $0x1f,%edx
    42ba:	01 d0                	add    %edx,%eax
    42bc:	d1 f8                	sar    %eax
    42be:	83 e8 03             	sub    $0x3,%eax
    42c1:	48 8d 15 d0 12 00 00 	lea    0x12d0(%rip),%rdx        # 5598 <game_height+0x448>
    42c8:	89 ce                	mov    %ecx,%esi
    42ca:	89 c7                	mov    %eax,%edi
    42cc:	b8 00 00 00 00       	mov    $0x0,%eax
    42d1:	e8 ba e0 ff ff       	call   2390 <_init+0x390>
    42d6:	8b 45 d8             	mov    -0x28(%rbp),%eax
    42d9:	89 c2                	mov    %eax,%edx
    42db:	c1 ea 1f             	shr    $0x1f,%edx
    42de:	01 d0                	add    %edx,%eax
    42e0:	d1 f8                	sar    %eax
    42e2:	8d 48 e7             	lea    -0x19(%rax),%ecx
    42e5:	8b 45 d4             	mov    -0x2c(%rbp),%eax
    42e8:	89 c2                	mov    %eax,%edx
    42ea:	c1 ea 1f             	shr    $0x1f,%edx
    42ed:	01 d0                	add    %edx,%eax
    42ef:	d1 f8                	sar    %eax
    42f1:	83 e8 02             	sub    $0x2,%eax
    42f4:	48 8d 15 15 13 00 00 	lea    0x1315(%rip),%rdx        # 5610 <game_height+0x4c0>
    42fb:	89 ce                	mov    %ecx,%esi
    42fd:	89 c7                	mov    %eax,%edi
    42ff:	b8 00 00 00 00       	mov    $0x0,%eax
    4304:	e8 87 e0 ff ff       	call   2390 <_init+0x390>
    4309:	8b 45 d8             	mov    -0x28(%rbp),%eax
    430c:	89 c2                	mov    %eax,%edx
    430e:	c1 ea 1f             	shr    $0x1f,%edx
    4311:	01 d0                	add    %edx,%eax
    4313:	d1 f8                	sar    %eax
    4315:	8d 48 e7             	lea    -0x19(%rax),%ecx
    4318:	8b 45 d4             	mov    -0x2c(%rbp),%eax
    431b:	89 c2                	mov    %eax,%edx
    431d:	c1 ea 1f             	shr    $0x1f,%edx
    4320:	01 d0                	add    %edx,%eax
    4322:	d1 f8                	sar    %eax
    4324:	83 e8 01             	sub    $0x1,%eax
    4327:	48 8d 15 62 13 00 00 	lea    0x1362(%rip),%rdx        # 5690 <game_height+0x540>
    432e:	89 ce                	mov    %ecx,%esi
    4330:	89 c7                	mov    %eax,%edi
    4332:	b8 00 00 00 00       	mov    $0x0,%eax
    4337:	e8 54 e0 ff ff       	call   2390 <_init+0x390>
    433c:	48 8b 05 5d 2d 00 00 	mov    0x2d5d(%rip),%rax        # 70a0 <stdscr@NCURSES6_TINFO_5.0.19991023>
    4343:	ba 00 00 00 00       	mov    $0x0,%edx
    4348:	be 00 01 20 00       	mov    $0x200100,%esi
    434d:	48 89 c7             	mov    %rax,%rdi
    4350:	e8 7b e2 ff ff       	call   25d0 <_init+0x5d0>
    4355:	48 8b 05 44 2d 00 00 	mov    0x2d44(%rip),%rax        # 70a0 <stdscr@NCURSES6_TINFO_5.0.19991023>
    435c:	ba 00 00 00 00       	mov    $0x0,%edx
    4361:	be 00 03 20 00       	mov    $0x200300,%esi
    4366:	48 89 c7             	mov    %rax,%rdi
    4369:	e8 02 e1 ff ff       	call   2470 <_init+0x470>
    436e:	8b 45 d8             	mov    -0x28(%rbp),%eax
    4371:	89 c2                	mov    %eax,%edx
    4373:	c1 ea 1f             	shr    $0x1f,%edx
    4376:	01 d0                	add    %edx,%eax
    4378:	d1 f8                	sar    %eax
    437a:	8d 48 fa             	lea    -0x6(%rax),%ecx
    437d:	8b 45 d4             	mov    -0x2c(%rbp),%eax
    4380:	89 c2                	mov    %eax,%edx
    4382:	c1 ea 1f             	shr    $0x1f,%edx
    4385:	01 d0                	add    %edx,%eax
    4387:	d1 f8                	sar    %eax
    4389:	83 c0 01             	add    $0x1,%eax
    438c:	48 8d 15 74 13 00 00 	lea    0x1374(%rip),%rdx        # 5707 <game_height+0x5b7>
    4393:	89 ce                	mov    %ecx,%esi
    4395:	89 c7                	mov    %eax,%edi
    4397:	b8 00 00 00 00       	mov    $0x0,%eax
    439c:	e8 ef df ff ff       	call   2390 <_init+0x390>
    43a1:	48 8b 05 f8 2c 00 00 	mov    0x2cf8(%rip),%rax        # 70a0 <stdscr@NCURSES6_TINFO_5.0.19991023>
    43a8:	ba 00 00 00 00       	mov    $0x0,%edx
    43ad:	be 00 03 20 00       	mov    $0x200300,%esi
    43b2:	48 89 c7             	mov    %rax,%rdi
    43b5:	e8 16 e2 ff ff       	call   25d0 <_init+0x5d0>
    43ba:	c7 45 cc 00 00 00 00 	movl   $0x0,-0x34(%rbp)
    43c1:	e9 f8 00 00 00       	jmp    44be <show_menu+0x33f>
    43c6:	8b 45 cc             	mov    -0x34(%rbp),%eax
    43c9:	3b 45 c8             	cmp    -0x38(%rbp),%eax
    43cc:	75 77                	jne    4445 <show_menu+0x2c6>
    43ce:	48 8b 05 cb 2c 00 00 	mov    0x2ccb(%rip),%rax        # 70a0 <stdscr@NCURSES6_TINFO_5.0.19991023>
    43d5:	ba 00 00 00 00       	mov    $0x0,%edx
    43da:	be 00 01 24 00       	mov    $0x240100,%esi
    43df:	48 89 c7             	mov    %rax,%rdi
    43e2:	e8 89 e0 ff ff       	call   2470 <_init+0x470>
    43e7:	8b 45 cc             	mov    -0x34(%rbp),%eax
    43ea:	48 98                	cltq   
    43ec:	48 8b 54 c5 e0       	mov    -0x20(%rbp,%rax,8),%rdx
    43f1:	8b 45 d8             	mov    -0x28(%rbp),%eax
    43f4:	89 c1                	mov    %eax,%ecx
    43f6:	c1 e9 1f             	shr    $0x1f,%ecx
    43f9:	01 c8                	add    %ecx,%eax
    43fb:	d1 f8                	sar    %eax
    43fd:	8d 70 f8             	lea    -0x8(%rax),%esi
    4400:	8b 45 d4             	mov    -0x2c(%rbp),%eax
    4403:	89 c1                	mov    %eax,%ecx
    4405:	c1 e9 1f             	shr    $0x1f,%ecx
    4408:	01 c8                	add    %ecx,%eax
    440a:	d1 f8                	sar    %eax
    440c:	8d 48 04             	lea    0x4(%rax),%ecx
    440f:	8b 45 cc             	mov    -0x34(%rbp),%eax
    4412:	01 c8                	add    %ecx,%eax
    4414:	48 89 d1             	mov    %rdx,%rcx
    4417:	48 8d 15 f4 12 00 00 	lea    0x12f4(%rip),%rdx        # 5712 <game_height+0x5c2>
    441e:	89 c7                	mov    %eax,%edi
    4420:	b8 00 00 00 00       	mov    $0x0,%eax
    4425:	e8 66 df ff ff       	call   2390 <_init+0x390>
    442a:	48 8b 05 6f 2c 00 00 	mov    0x2c6f(%rip),%rax        # 70a0 <stdscr@NCURSES6_TINFO_5.0.19991023>
    4431:	ba 00 00 00 00       	mov    $0x0,%edx
    4436:	be 00 01 24 00       	mov    $0x240100,%esi
    443b:	48 89 c7             	mov    %rax,%rdi
    443e:	e8 8d e1 ff ff       	call   25d0 <_init+0x5d0>
    4443:	eb 75                	jmp    44ba <show_menu+0x33b>
    4445:	48 8b 05 54 2c 00 00 	mov    0x2c54(%rip),%rax        # 70a0 <stdscr@NCURSES6_TINFO_5.0.19991023>
    444c:	ba 00 00 00 00       	mov    $0x0,%edx
    4451:	be 00 06 00 00       	mov    $0x600,%esi
    4456:	48 89 c7             	mov    %rax,%rdi
    4459:	e8 12 e0 ff ff       	call   2470 <_init+0x470>
    445e:	8b 45 cc             	mov    -0x34(%rbp),%eax
    4461:	48 98                	cltq   
    4463:	48 8b 54 c5 e0       	mov    -0x20(%rbp,%rax,8),%rdx
    4468:	8b 45 d8             	mov    -0x28(%rbp),%eax
    446b:	89 c1                	mov    %eax,%ecx
    446d:	c1 e9 1f             	shr    $0x1f,%ecx
    4470:	01 c8                	add    %ecx,%eax
    4472:	d1 f8                	sar    %eax
    4474:	8d 70 fa             	lea    -0x6(%rax),%esi
    4477:	8b 45 d4             	mov    -0x2c(%rbp),%eax
    447a:	89 c1                	mov    %eax,%ecx
    447c:	c1 e9 1f             	shr    $0x1f,%ecx
    447f:	01 c8                	add    %ecx,%eax
    4481:	d1 f8                	sar    %eax
    4483:	8d 48 04             	lea    0x4(%rax),%ecx
    4486:	8b 45 cc             	mov    -0x34(%rbp),%eax
    4489:	01 c8                	add    %ecx,%eax
    448b:	48 89 d1             	mov    %rdx,%rcx
    448e:	48 8d 15 c5 0c 00 00 	lea    0xcc5(%rip),%rdx        # 515a <game_height+0xa>
    4495:	89 c7                	mov    %eax,%edi
    4497:	b8 00 00 00 00       	mov    $0x0,%eax
    449c:	e8 ef de ff ff       	call   2390 <_init+0x390>
    44a1:	48 8b 05 f8 2b 00 00 	mov    0x2bf8(%rip),%rax        # 70a0 <stdscr@NCURSES6_TINFO_5.0.19991023>
    44a8:	ba 00 00 00 00       	mov    $0x0,%edx
    44ad:	be 00 06 00 00       	mov    $0x600,%esi
    44b2:	48 89 c7             	mov    %rax,%rdi
    44b5:	e8 16 e1 ff ff       	call   25d0 <_init+0x5d0>
    44ba:	83 45 cc 01          	addl   $0x1,-0x34(%rbp)
    44be:	8b 45 cc             	mov    -0x34(%rbp),%eax
    44c1:	3b 45 d0             	cmp    -0x30(%rbp),%eax
    44c4:	0f 8c fc fe ff ff    	jl     43c6 <show_menu+0x247>
    44ca:	48 8b 05 cf 2b 00 00 	mov    0x2bcf(%rip),%rax        # 70a0 <stdscr@NCURSES6_TINFO_5.0.19991023>
    44d1:	ba 00 00 00 00       	mov    $0x0,%edx
    44d6:	be 00 03 10 00       	mov    $0x100300,%esi
    44db:	48 89 c7             	mov    %rax,%rdi
    44de:	e8 8d df ff ff       	call   2470 <_init+0x470>
    44e3:	8b 45 d8             	mov    -0x28(%rbp),%eax
    44e6:	89 c2                	mov    %eax,%edx
    44e8:	c1 ea 1f             	shr    $0x1f,%edx
    44eb:	01 d0                	add    %edx,%eax
    44ed:	d1 f8                	sar    %eax
    44ef:	8d 48 f1             	lea    -0xf(%rax),%ecx
    44f2:	8b 45 d4             	mov    -0x2c(%rbp),%eax
    44f5:	83 e8 02             	sub    $0x2,%eax
    44f8:	48 8d 15 29 0c 00 00 	lea    0xc29(%rip),%rdx        # 5128 <_IO_stdin_used+0x128>
    44ff:	89 ce                	mov    %ecx,%esi
    4501:	89 c7                	mov    %eax,%edi
    4503:	b8 00 00 00 00       	mov    $0x0,%eax
    4508:	e8 83 de ff ff       	call   2390 <_init+0x390>
    450d:	48 8b 05 8c 2b 00 00 	mov    0x2b8c(%rip),%rax        # 70a0 <stdscr@NCURSES6_TINFO_5.0.19991023>
    4514:	ba 00 00 00 00       	mov    $0x0,%edx
    4519:	be 00 03 10 00       	mov    $0x100300,%esi
    451e:	48 89 c7             	mov    %rax,%rdi
    4521:	e8 aa e0 ff ff       	call   25d0 <_init+0x5d0>
    4526:	48 8b 05 73 2b 00 00 	mov    0x2b73(%rip),%rax        # 70a0 <stdscr@NCURSES6_TINFO_5.0.19991023>
    452d:	48 89 c7             	mov    %rax,%rdi
    4530:	e8 4b df ff ff       	call   2480 <_init+0x480>
    4535:	48 8b 05 64 2b 00 00 	mov    0x2b64(%rip),%rax        # 70a0 <stdscr@NCURSES6_TINFO_5.0.19991023>
    453c:	48 89 c7             	mov    %rax,%rdi
    453f:	e8 8c df ff ff       	call   24d0 <_init+0x4d0>
    4544:	89 45 dc             	mov    %eax,-0x24(%rbp)
    4547:	81 7d dc 03 01 00 00 	cmpl   $0x103,-0x24(%rbp)
    454e:	0f 84 93 00 00 00    	je     45e7 <show_menu+0x468>
    4554:	81 7d dc 03 01 00 00 	cmpl   $0x103,-0x24(%rbp)
    455b:	0f 8f 5d fc ff ff    	jg     41be <show_menu+0x3f>
    4561:	81 7d dc 02 01 00 00 	cmpl   $0x102,-0x24(%rbp)
    4568:	0f 84 8d 00 00 00    	je     45fb <show_menu+0x47c>
    456e:	81 7d dc 02 01 00 00 	cmpl   $0x102,-0x24(%rbp)
    4575:	0f 8f 43 fc ff ff    	jg     41be <show_menu+0x3f>
    457b:	83 7d dc 77          	cmpl   $0x77,-0x24(%rbp)
    457f:	74 66                	je     45e7 <show_menu+0x468>
    4581:	83 7d dc 77          	cmpl   $0x77,-0x24(%rbp)
    4585:	0f 8f 33 fc ff ff    	jg     41be <show_menu+0x3f>
    458b:	83 7d dc 73          	cmpl   $0x73,-0x24(%rbp)
    458f:	74 6a                	je     45fb <show_menu+0x47c>
    4591:	83 7d dc 73          	cmpl   $0x73,-0x24(%rbp)
    4595:	0f 8f 23 fc ff ff    	jg     41be <show_menu+0x3f>
    459b:	83 7d dc 57          	cmpl   $0x57,-0x24(%rbp)
    459f:	74 46                	je     45e7 <show_menu+0x468>
    45a1:	83 7d dc 57          	cmpl   $0x57,-0x24(%rbp)
    45a5:	0f 8f 13 fc ff ff    	jg     41be <show_menu+0x3f>
    45ab:	83 7d dc 20          	cmpl   $0x20,-0x24(%rbp)
    45af:	7f 2e                	jg     45df <show_menu+0x460>
    45b1:	83 7d dc 0a          	cmpl   $0xa,-0x24(%rbp)
    45b5:	0f 8c 03 fc ff ff    	jl     41be <show_menu+0x3f>
    45bb:	8b 45 dc             	mov    -0x24(%rbp),%eax
    45be:	48 ba 00 24 00 00 01 	movabs $0x100002400,%rdx
    45c5:	00 00 00 
    45c8:	89 c1                	mov    %eax,%ecx
    45ca:	48 d3 ea             	shr    %cl,%rdx
    45cd:	48 89 d0             	mov    %rdx,%rax
    45d0:	83 e0 01             	and    $0x1,%eax
    45d3:	48 85 c0             	test   %rax,%rax
    45d6:	0f 95 c0             	setne  %al
    45d9:	84 c0                	test   %al,%al
    45db:	75 2d                	jne    460a <show_menu+0x48b>
    45dd:	eb 3f                	jmp    461e <show_menu+0x49f>
    45df:	83 7d dc 53          	cmpl   $0x53,-0x24(%rbp)
    45e3:	74 16                	je     45fb <show_menu+0x47c>
    45e5:	eb 37                	jmp    461e <show_menu+0x49f>
    45e7:	8b 45 c8             	mov    -0x38(%rbp),%eax
    45ea:	8d 50 ff             	lea    -0x1(%rax),%edx
    45ed:	8b 45 d0             	mov    -0x30(%rbp),%eax
    45f0:	01 d0                	add    %edx,%eax
    45f2:	99                   	cltd   
    45f3:	f7 7d d0             	idivl  -0x30(%rbp)
    45f6:	89 55 c8             	mov    %edx,-0x38(%rbp)
    45f9:	eb 23                	jmp    461e <show_menu+0x49f>
    45fb:	8b 45 c8             	mov    -0x38(%rbp),%eax
    45fe:	83 c0 01             	add    $0x1,%eax
    4601:	99                   	cltd   
    4602:	f7 7d d0             	idivl  -0x30(%rbp)
    4605:	89 55 c8             	mov    %edx,-0x38(%rbp)
    4608:	eb 14                	jmp    461e <show_menu+0x49f>
    460a:	8b 45 c8             	mov    -0x38(%rbp),%eax
    460d:	48 8b 55 f8          	mov    -0x8(%rbp),%rdx
    4611:	64 48 2b 14 25 28 00 	sub    %fs:0x28,%rdx
    4618:	00 00 
    461a:	74 0c                	je     4628 <show_menu+0x4a9>
    461c:	eb 05                	jmp    4623 <show_menu+0x4a4>
    461e:	e9 9b fb ff ff       	jmp    41be <show_menu+0x3f>
    4623:	e8 d8 de ff ff       	call   2500 <_init+0x500>
    4628:	c9                   	leave  
    4629:	c3                   	ret    

000000000000462a <prompt_name>:
    462a:	f3 0f 1e fa          	endbr64 
    462e:	55                   	push   %rbp
    462f:	48 89 e5             	mov    %rsp,%rbp
    4632:	48 83 ec 40          	sub    $0x40,%rsp
    4636:	64 48 8b 04 25 28 00 	mov    %fs:0x28,%rax
    463d:	00 00 
    463f:	48 89 45 f8          	mov    %rax,-0x8(%rbp)
    4643:	31 c0                	xor    %eax,%eax
    4645:	48 8b 05 54 2a 00 00 	mov    0x2a54(%rip),%rax        # 70a0 <stdscr@NCURSES6_TINFO_5.0.19991023>
    464c:	48 89 c7             	mov    %rax,%rdi
    464f:	e8 3c de ff ff       	call   2490 <_init+0x490>
    4654:	48 8b 05 45 2a 00 00 	mov    0x2a45(%rip),%rax        # 70a0 <stdscr@NCURSES6_TINFO_5.0.19991023>
    465b:	48 89 c7             	mov    %rax,%rdi
    465e:	e8 4d df ff ff       	call   25b0 <_init+0x5b0>
    4663:	89 45 c4             	mov    %eax,-0x3c(%rbp)
    4666:	48 8b 05 33 2a 00 00 	mov    0x2a33(%rip),%rax        # 70a0 <stdscr@NCURSES6_TINFO_5.0.19991023>
    466d:	48 89 c7             	mov    %rax,%rdi
    4670:	e8 8b dd ff ff       	call   2400 <_init+0x400>
    4675:	89 45 c8             	mov    %eax,-0x38(%rbp)
    4678:	48 8b 05 21 2a 00 00 	mov    0x2a21(%rip),%rax        # 70a0 <stdscr@NCURSES6_TINFO_5.0.19991023>
    467f:	ba 00 00 00 00       	mov    $0x0,%edx
    4684:	be 00 04 20 00       	mov    $0x200400,%esi
    4689:	48 89 c7             	mov    %rax,%rdi
    468c:	e8 df dd ff ff       	call   2470 <_init+0x470>
    4691:	8b 45 c8             	mov    -0x38(%rbp),%eax
    4694:	89 c2                	mov    %eax,%edx
    4696:	c1 ea 1f             	shr    $0x1f,%edx
    4699:	01 d0                	add    %edx,%eax
    469b:	d1 f8                	sar    %eax
    469d:	8d 48 f4             	lea    -0xc(%rax),%ecx
    46a0:	8b 45 c4             	mov    -0x3c(%rbp),%eax
    46a3:	89 c2                	mov    %eax,%edx
    46a5:	c1 ea 1f             	shr    $0x1f,%edx
    46a8:	01 d0                	add    %edx,%eax
    46aa:	d1 f8                	sar    %eax
    46ac:	83 e8 02             	sub    $0x2,%eax
    46af:	48 8d 15 65 10 00 00 	lea    0x1065(%rip),%rdx        # 571b <game_height+0x5cb>
    46b6:	89 ce                	mov    %ecx,%esi
    46b8:	89 c7                	mov    %eax,%edi
    46ba:	b8 00 00 00 00       	mov    $0x0,%eax
    46bf:	e8 cc dc ff ff       	call   2390 <_init+0x390>
    46c4:	48 8b 05 d5 29 00 00 	mov    0x29d5(%rip),%rax        # 70a0 <stdscr@NCURSES6_TINFO_5.0.19991023>
    46cb:	ba 00 00 00 00       	mov    $0x0,%edx
    46d0:	be 00 04 20 00       	mov    $0x200400,%esi
    46d5:	48 89 c7             	mov    %rax,%rdi
    46d8:	e8 f3 de ff ff       	call   25d0 <_init+0x5d0>
    46dd:	e8 9e dc ff ff       	call   2380 <_init+0x380>
    46e2:	bf 01 00 00 00       	mov    $0x1,%edi
    46e7:	e8 24 dd ff ff       	call   2410 <_init+0x410>
    46ec:	48 8b 05 ad 29 00 00 	mov    0x29ad(%rip),%rax        # 70a0 <stdscr@NCURSES6_TINFO_5.0.19991023>
    46f3:	ba 00 00 00 00       	mov    $0x0,%edx
    46f8:	be 00 03 00 00       	mov    $0x300,%esi
    46fd:	48 89 c7             	mov    %rax,%rdi
    4700:	e8 6b dd ff ff       	call   2470 <_init+0x470>
    4705:	8b 45 c8             	mov    -0x38(%rbp),%eax
    4708:	89 c2                	mov    %eax,%edx
    470a:	c1 ea 1f             	shr    $0x1f,%edx
    470d:	01 d0                	add    %edx,%eax
    470f:	d1 f8                	sar    %eax
    4711:	8d 48 f6             	lea    -0xa(%rax),%ecx
    4714:	8b 45 c4             	mov    -0x3c(%rbp),%eax
    4717:	89 c2                	mov    %eax,%edx
    4719:	c1 ea 1f             	shr    $0x1f,%edx
    471c:	01 d0                	add    %edx,%eax
    471e:	d1 f8                	sar    %eax
    4720:	89 c7                	mov    %eax,%edi
    4722:	48 8d 05 0d 10 00 00 	lea    0x100d(%rip),%rax        # 5736 <game_height+0x5e6>
    4729:	48 89 c2             	mov    %rax,%rdx
    472c:	89 ce                	mov    %ecx,%esi
    472e:	b8 00 00 00 00       	mov    $0x0,%eax
    4733:	e8 58 dc ff ff       	call   2390 <_init+0x390>
    4738:	48 8b 05 61 29 00 00 	mov    0x2961(%rip),%rax        # 70a0 <stdscr@NCURSES6_TINFO_5.0.19991023>
    473f:	ba 00 00 00 00       	mov    $0x0,%edx
    4744:	be 00 03 00 00       	mov    $0x300,%esi
    4749:	48 89 c7             	mov    %rax,%rdi
    474c:	e8 7f de ff ff       	call   25d0 <_init+0x5d0>
    4751:	8b 45 c8             	mov    -0x38(%rbp),%eax
    4754:	89 c2                	mov    %eax,%edx
    4756:	c1 ea 1f             	shr    $0x1f,%edx
    4759:	01 d0                	add    %edx,%eax
    475b:	d1 f8                	sar    %eax
    475d:	8d 50 f6             	lea    -0xa(%rax),%edx
    4760:	8b 45 c4             	mov    -0x3c(%rbp),%eax
    4763:	89 c1                	mov    %eax,%ecx
    4765:	c1 e9 1f             	shr    $0x1f,%ecx
    4768:	01 c8                	add    %ecx,%eax
    476a:	d1 f8                	sar    %eax
    476c:	89 c1                	mov    %eax,%ecx
    476e:	48 8b 05 2b 29 00 00 	mov    0x292b(%rip),%rax        # 70a0 <stdscr@NCURSES6_TINFO_5.0.19991023>
    4775:	89 ce                	mov    %ecx,%esi
    4777:	48 89 c7             	mov    %rax,%rdi
    477a:	e8 b1 dc ff ff       	call   2430 <_init+0x430>
    477f:	48 8b 05 1a 29 00 00 	mov    0x291a(%rip),%rax        # 70a0 <stdscr@NCURSES6_TINFO_5.0.19991023>
    4786:	48 89 c7             	mov    %rax,%rdi
    4789:	e8 f2 dc ff ff       	call   2480 <_init+0x480>
    478e:	48 c7 45 d0 00 00 00 	movq   $0x0,-0x30(%rbp)
    4795:	00 
    4796:	48 c7 45 d8 00 00 00 	movq   $0x0,-0x28(%rbp)
    479d:	00 
    479e:	48 c7 45 e0 00 00 00 	movq   $0x0,-0x20(%rbp)
    47a5:	00 
    47a6:	48 c7 45 e8 00 00 00 	movq   $0x0,-0x18(%rbp)
    47ad:	00 
    47ae:	c7 45 c0 00 00 00 00 	movl   $0x0,-0x40(%rbp)
    47b5:	e9 a8 01 00 00       	jmp    4962 <prompt_name+0x338>
    47ba:	48 8b 05 df 28 00 00 	mov    0x28df(%rip),%rax        # 70a0 <stdscr@NCURSES6_TINFO_5.0.19991023>
    47c1:	48 89 c7             	mov    %rax,%rdi
    47c4:	e8 07 dd ff ff       	call   24d0 <_init+0x4d0>
    47c9:	89 45 cc             	mov    %eax,-0x34(%rbp)
    47cc:	83 7d cc 0a          	cmpl   $0xa,-0x34(%rbp)
    47d0:	0f 84 96 01 00 00    	je     496c <prompt_name+0x342>
    47d6:	83 7d cc 0d          	cmpl   $0xd,-0x34(%rbp)
    47da:	0f 84 8c 01 00 00    	je     496c <prompt_name+0x342>
    47e0:	81 7d cc 07 01 00 00 	cmpl   $0x107,-0x34(%rbp)
    47e7:	74 10                	je     47f9 <prompt_name+0x1cf>
    47e9:	83 7d cc 7f          	cmpl   $0x7f,-0x34(%rbp)
    47ed:	74 0a                	je     47f9 <prompt_name+0x1cf>
    47ef:	83 7d cc 08          	cmpl   $0x8,-0x34(%rbp)
    47f3:	0f 85 ab 00 00 00    	jne    48a4 <prompt_name+0x27a>
    47f9:	83 7d c0 00          	cmpl   $0x0,-0x40(%rbp)
    47fd:	0f 8e 5f 01 00 00    	jle    4962 <prompt_name+0x338>
    4803:	83 6d c0 01          	subl   $0x1,-0x40(%rbp)
    4807:	8b 45 c0             	mov    -0x40(%rbp),%eax
    480a:	48 98                	cltq   
    480c:	c6 44 05 d0 00       	movb   $0x0,-0x30(%rbp,%rax,1)
    4811:	8b 45 c8             	mov    -0x38(%rbp),%eax
    4814:	89 c2                	mov    %eax,%edx
    4816:	c1 ea 1f             	shr    $0x1f,%edx
    4819:	01 d0                	add    %edx,%eax
    481b:	d1 f8                	sar    %eax
    481d:	8d 50 f6             	lea    -0xa(%rax),%edx
    4820:	8b 45 c0             	mov    -0x40(%rbp),%eax
    4823:	01 c2                	add    %eax,%edx
    4825:	8b 45 c4             	mov    -0x3c(%rbp),%eax
    4828:	89 c1                	mov    %eax,%ecx
    482a:	c1 e9 1f             	shr    $0x1f,%ecx
    482d:	01 c8                	add    %ecx,%eax
    482f:	d1 f8                	sar    %eax
    4831:	89 c1                	mov    %eax,%ecx
    4833:	48 8b 05 66 28 00 00 	mov    0x2866(%rip),%rax        # 70a0 <stdscr@NCURSES6_TINFO_5.0.19991023>
    483a:	89 ce                	mov    %ecx,%esi
    483c:	48 89 c7             	mov    %rax,%rdi
    483f:	e8 ec db ff ff       	call   2430 <_init+0x430>
    4844:	83 f8 ff             	cmp    $0xffffffff,%eax
    4847:	74 14                	je     485d <prompt_name+0x233>
    4849:	48 8b 05 50 28 00 00 	mov    0x2850(%rip),%rax        # 70a0 <stdscr@NCURSES6_TINFO_5.0.19991023>
    4850:	be 5f 00 00 00       	mov    $0x5f,%esi
    4855:	48 89 c7             	mov    %rax,%rdi
    4858:	e8 03 db ff ff       	call   2360 <_init+0x360>
    485d:	8b 45 c8             	mov    -0x38(%rbp),%eax
    4860:	89 c2                	mov    %eax,%edx
    4862:	c1 ea 1f             	shr    $0x1f,%edx
    4865:	01 d0                	add    %edx,%eax
    4867:	d1 f8                	sar    %eax
    4869:	8d 50 f6             	lea    -0xa(%rax),%edx
    486c:	8b 45 c0             	mov    -0x40(%rbp),%eax
    486f:	01 c2                	add    %eax,%edx
    4871:	8b 45 c4             	mov    -0x3c(%rbp),%eax
    4874:	89 c1                	mov    %eax,%ecx
    4876:	c1 e9 1f             	shr    $0x1f,%ecx
    4879:	01 c8                	add    %ecx,%eax
    487b:	d1 f8                	sar    %eax
    487d:	89 c1                	mov    %eax,%ecx
    487f:	48 8b 05 1a 28 00 00 	mov    0x281a(%rip),%rax        # 70a0 <stdscr@NCURSES6_TINFO_5.0.19991023>
    4886:	89 ce                	mov    %ecx,%esi
    4888:	48 89 c7             	mov    %rax,%rdi
    488b:	e8 a0 db ff ff       	call   2430 <_init+0x430>
    4890:	48 8b 05 09 28 00 00 	mov    0x2809(%rip),%rax        # 70a0 <stdscr@NCURSES6_TINFO_5.0.19991023>
    4897:	48 89 c7             	mov    %rax,%rdi
    489a:	e8 e1 db ff ff       	call   2480 <_init+0x480>
    489f:	e9 be 00 00 00       	jmp    4962 <prompt_name+0x338>
    48a4:	83 7d cc 1f          	cmpl   $0x1f,-0x34(%rbp)
    48a8:	0f 8e b4 00 00 00    	jle    4962 <prompt_name+0x338>
    48ae:	83 7d cc 7e          	cmpl   $0x7e,-0x34(%rbp)
    48b2:	0f 8f aa 00 00 00    	jg     4962 <prompt_name+0x338>
    48b8:	8b 45 cc             	mov    -0x34(%rbp),%eax
    48bb:	89 c2                	mov    %eax,%edx
    48bd:	8b 45 c0             	mov    -0x40(%rbp),%eax
    48c0:	48 98                	cltq   
    48c2:	88 54 05 d0          	mov    %dl,-0x30(%rbp,%rax,1)
    48c6:	8b 45 c8             	mov    -0x38(%rbp),%eax
    48c9:	89 c2                	mov    %eax,%edx
    48cb:	c1 ea 1f             	shr    $0x1f,%edx
    48ce:	01 d0                	add    %edx,%eax
    48d0:	d1 f8                	sar    %eax
    48d2:	8d 50 f6             	lea    -0xa(%rax),%edx
    48d5:	8b 45 c0             	mov    -0x40(%rbp),%eax
    48d8:	01 c2                	add    %eax,%edx
    48da:	8b 45 c4             	mov    -0x3c(%rbp),%eax
    48dd:	89 c1                	mov    %eax,%ecx
    48df:	c1 e9 1f             	shr    $0x1f,%ecx
    48e2:	01 c8                	add    %ecx,%eax
    48e4:	d1 f8                	sar    %eax
    48e6:	89 c1                	mov    %eax,%ecx
    48e8:	48 8b 05 b1 27 00 00 	mov    0x27b1(%rip),%rax        # 70a0 <stdscr@NCURSES6_TINFO_5.0.19991023>
    48ef:	89 ce                	mov    %ecx,%esi
    48f1:	48 89 c7             	mov    %rax,%rdi
    48f4:	e8 37 db ff ff       	call   2430 <_init+0x430>
    48f9:	83 f8 ff             	cmp    $0xffffffff,%eax
    48fc:	74 14                	je     4912 <prompt_name+0x2e8>
    48fe:	8b 55 cc             	mov    -0x34(%rbp),%edx
    4901:	48 8b 05 98 27 00 00 	mov    0x2798(%rip),%rax        # 70a0 <stdscr@NCURSES6_TINFO_5.0.19991023>
    4908:	89 d6                	mov    %edx,%esi
    490a:	48 89 c7             	mov    %rax,%rdi
    490d:	e8 4e da ff ff       	call   2360 <_init+0x360>
    4912:	83 45 c0 01          	addl   $0x1,-0x40(%rbp)
    4916:	8b 45 c0             	mov    -0x40(%rbp),%eax
    4919:	48 98                	cltq   
    491b:	c6 44 05 d0 00       	movb   $0x0,-0x30(%rbp,%rax,1)
    4920:	8b 45 c8             	mov    -0x38(%rbp),%eax
    4923:	89 c2                	mov    %eax,%edx
    4925:	c1 ea 1f             	shr    $0x1f,%edx
    4928:	01 d0                	add    %edx,%eax
    492a:	d1 f8                	sar    %eax
    492c:	8d 50 f6             	lea    -0xa(%rax),%edx
    492f:	8b 45 c0             	mov    -0x40(%rbp),%eax
    4932:	01 c2                	add    %eax,%edx
    4934:	8b 45 c4             	mov    -0x3c(%rbp),%eax
    4937:	89 c1                	mov    %eax,%ecx
    4939:	c1 e9 1f             	shr    $0x1f,%ecx
    493c:	01 c8                	add    %ecx,%eax
    493e:	d1 f8                	sar    %eax
    4940:	89 c1                	mov    %eax,%ecx
    4942:	48 8b 05 57 27 00 00 	mov    0x2757(%rip),%rax        # 70a0 <stdscr@NCURSES6_TINFO_5.0.19991023>
    4949:	89 ce                	mov    %ecx,%esi
    494b:	48 89 c7             	mov    %rax,%rdi
    494e:	e8 dd da ff ff       	call   2430 <_init+0x430>
    4953:	48 8b 05 46 27 00 00 	mov    0x2746(%rip),%rax        # 70a0 <stdscr@NCURSES6_TINFO_5.0.19991023>
    495a:	48 89 c7             	mov    %rax,%rdi
    495d:	e8 1e db ff ff       	call   2480 <_init+0x480>
    4962:	83 7d c0 09          	cmpl   $0x9,-0x40(%rbp)
    4966:	0f 8e 4e fe ff ff    	jle    47ba <prompt_name+0x190>
    496c:	48 8d 45 d0          	lea    -0x30(%rbp),%rax
    4970:	0f b6 00             	movzbl (%rax),%eax
    4973:	84 c0                	test   %al,%al
    4975:	74 2c                	je     49a3 <prompt_name+0x379>
    4977:	48 8d 45 d0          	lea    -0x30(%rbp),%rax
    497b:	48 89 c1             	mov    %rax,%rcx
    497e:	48 8d 05 d5 07 00 00 	lea    0x7d5(%rip),%rax        # 515a <game_height+0xa>
    4985:	48 89 c2             	mov    %rax,%rdx
    4988:	be 20 00 00 00       	mov    $0x20,%esi
    498d:	48 8d 05 cc 26 00 00 	lea    0x26cc(%rip),%rax        # 7060 <player_name>
    4994:	48 89 c7             	mov    %rax,%rdi
    4997:	b8 00 00 00 00       	mov    $0x0,%eax
    499c:	e8 af d9 ff ff       	call   2350 <_init+0x350>
    49a1:	eb 23                	jmp    49c6 <prompt_name+0x39c>
    49a3:	48 8d 05 da 07 00 00 	lea    0x7da(%rip),%rax        # 5184 <game_height+0x34>
    49aa:	48 89 c2             	mov    %rax,%rdx
    49ad:	be 20 00 00 00       	mov    $0x20,%esi
    49b2:	48 8d 05 a7 26 00 00 	lea    0x26a7(%rip),%rax        # 7060 <player_name>
    49b9:	48 89 c7             	mov    %rax,%rdi
    49bc:	b8 00 00 00 00       	mov    $0x0,%eax
    49c1:	e8 8a d9 ff ff       	call   2350 <_init+0x350>
    49c6:	e8 15 da ff ff       	call   23e0 <_init+0x3e0>
    49cb:	bf 00 00 00 00       	mov    $0x0,%edi
    49d0:	e8 3b da ff ff       	call   2410 <_init+0x410>
    49d5:	90                   	nop
    49d6:	48 8b 45 f8          	mov    -0x8(%rbp),%rax
    49da:	64 48 2b 04 25 28 00 	sub    %fs:0x28,%rax
    49e1:	00 00 
    49e3:	74 05                	je     49ea <prompt_name+0x3c0>
    49e5:	e8 16 db ff ff       	call   2500 <_init+0x500>
    49ea:	c9                   	leave  
    49eb:	c3                   	ret    

00000000000049ec <main>:
    49ec:	f3 0f 1e fa          	endbr64 
    49f0:	55                   	push   %rbp
    49f1:	48 89 e5             	mov    %rsp,%rbp
    49f4:	48 83 ec 20          	sub    $0x20,%rsp
    49f8:	48 8d 05 42 0d 00 00 	lea    0xd42(%rip),%rax        # 5741 <game_height+0x5f1>
    49ff:	48 89 c6             	mov    %rax,%rsi
    4a02:	bf 06 00 00 00       	mov    $0x6,%edi
    4a07:	e8 74 db ff ff       	call   2580 <_init+0x580>
    4a0c:	bf 00 00 00 00       	mov    $0x0,%edi
    4a11:	e8 ea db ff ff       	call   2600 <_init+0x600>
    4a16:	89 c7                	mov    %eax,%edi
    4a18:	e8 03 db ff ff       	call   2520 <_init+0x520>
    4a1d:	e8 7e da ff ff       	call   24a0 <_init+0x4a0>
    4a22:	e8 19 db ff ff       	call   2540 <_init+0x540>
    4a27:	e8 b4 d9 ff ff       	call   23e0 <_init+0x3e0>
    4a2c:	48 8b 05 6d 26 00 00 	mov    0x266d(%rip),%rax        # 70a0 <stdscr@NCURSES6_TINFO_5.0.19991023>
    4a33:	be 01 00 00 00       	mov    $0x1,%esi
    4a38:	48 89 c7             	mov    %rax,%rdi
    4a3b:	e8 b0 d9 ff ff       	call   23f0 <_init+0x3f0>
    4a40:	bf 00 00 00 00       	mov    $0x0,%edi
    4a45:	e8 c6 d9 ff ff       	call   2410 <_init+0x410>
    4a4a:	e8 a1 db ff ff       	call   25f0 <_init+0x5f0>
    4a4f:	84 c0                	test   %al,%al
    4a51:	0f 84 b8 00 00 00    	je     4b0f <main+0x123>
    4a57:	e8 d4 da ff ff       	call   2530 <_init+0x530>
    4a5c:	e8 7f da ff ff       	call   24e0 <_init+0x4e0>
    4a61:	84 c0                	test   %al,%al
    4a63:	74 32                	je     4a97 <main+0xab>
    4a65:	b9 c1 02 00 00       	mov    $0x2c1,%ecx
    4a6a:	ba 9b 01 00 00       	mov    $0x19b,%edx
    4a6f:	be e8 03 00 00       	mov    $0x3e8,%esi
    4a74:	bf 05 00 00 00       	mov    $0x5,%edi
    4a79:	e8 22 d9 ff ff       	call   23a0 <_init+0x3a0>
    4a7e:	b9 e8 03 00 00       	mov    $0x3e8,%ecx
    4a83:	ba 20 03 00 00       	mov    $0x320,%edx
    4a88:	be c8 00 00 00       	mov    $0xc8,%esi
    4a8d:	bf 06 00 00 00       	mov    $0x6,%edi
    4a92:	e8 09 d9 ff ff       	call   23a0 <_init+0x3a0>
    4a97:	ba 00 00 00 00       	mov    $0x0,%edx
    4a9c:	be 05 00 00 00       	mov    $0x5,%esi
    4aa1:	bf 01 00 00 00       	mov    $0x1,%edi
    4aa6:	e8 c5 d8 ff ff       	call   2370 <_init+0x370>
    4aab:	ba 00 00 00 00       	mov    $0x0,%edx
    4ab0:	be 02 00 00 00       	mov    $0x2,%esi
    4ab5:	bf 02 00 00 00       	mov    $0x2,%edi
    4aba:	e8 b1 d8 ff ff       	call   2370 <_init+0x370>
    4abf:	ba 00 00 00 00       	mov    $0x0,%edx
    4ac4:	be 06 00 00 00       	mov    $0x6,%esi
    4ac9:	bf 03 00 00 00       	mov    $0x3,%edi
    4ace:	e8 9d d8 ff ff       	call   2370 <_init+0x370>
    4ad3:	ba 00 00 00 00       	mov    $0x0,%edx
    4ad8:	be 05 00 00 00       	mov    $0x5,%esi
    4add:	bf 04 00 00 00       	mov    $0x4,%edi
    4ae2:	e8 89 d8 ff ff       	call   2370 <_init+0x370>
    4ae7:	ba 00 00 00 00       	mov    $0x0,%edx
    4aec:	be 03 00 00 00       	mov    $0x3,%esi
    4af1:	bf 05 00 00 00       	mov    $0x5,%edi
    4af6:	e8 75 d8 ff ff       	call   2370 <_init+0x370>
    4afb:	ba 00 00 00 00       	mov    $0x0,%edx
    4b00:	be 07 00 00 00       	mov    $0x7,%esi
    4b05:	bf 06 00 00 00       	mov    $0x6,%edi
    4b0a:	e8 61 d8 ff ff       	call   2370 <_init+0x370>
    4b0f:	48 8b 05 8a 25 00 00 	mov    0x258a(%rip),%rax        # 70a0 <stdscr@NCURSES6_TINFO_5.0.19991023>
    4b16:	be 00 00 00 00       	mov    $0x0,%esi
    4b1b:	48 89 c7             	mov    %rax,%rdi
    4b1e:	e8 0d d8 ff ff       	call   2330 <_init+0x330>
    4b23:	b8 00 00 00 00       	mov    $0x0,%eax
    4b28:	e8 52 f6 ff ff       	call   417f <show_menu>
    4b2d:	89 45 f0             	mov    %eax,-0x10(%rbp)
    4b30:	83 7d f0 00          	cmpl   $0x0,-0x10(%rbp)
    4b34:	0f 85 ee 02 00 00    	jne    4e28 <main+0x43c>
    4b3a:	b8 00 00 00 00       	mov    $0x0,%eax
    4b3f:	e8 e6 fa ff ff       	call   462a <prompt_name>
    4b44:	b8 00 00 00 00       	mov    $0x0,%eax
    4b49:	e8 7d e8 ff ff       	call   33cb <init_game>
    4b4e:	48 8b 05 4b 25 00 00 	mov    0x254b(%rip),%rax        # 70a0 <stdscr@NCURSES6_TINFO_5.0.19991023>
    4b55:	be 01 00 00 00       	mov    $0x1,%esi
    4b5a:	48 89 c7             	mov    %rax,%rdi
    4b5d:	e8 ce d7 ff ff       	call   2330 <_init+0x330>
    4b62:	8b 05 1c 25 00 00    	mov    0x251c(%rip),%eax        # 7084 <direction>
    4b68:	89 45 e4             	mov    %eax,-0x1c(%rbp)
    4b6b:	8b 05 13 25 00 00    	mov    0x2513(%rip),%eax        # 7084 <direction>
    4b71:	89 45 e8             	mov    %eax,-0x18(%rbp)
    4b74:	c7 45 ec 00 00 00 00 	movl   $0x0,-0x14(%rbp)
    4b7b:	b8 00 00 00 00       	mov    $0x0,%eax
    4b80:	e8 03 e9 ff ff       	call   3488 <draw_game>
    4b85:	e9 55 01 00 00       	jmp    4cdf <main+0x2f3>
    4b8a:	bf 0a 00 00 00       	mov    $0xa,%edi
    4b8f:	e8 0c da ff ff       	call   25a0 <_init+0x5a0>
    4b94:	83 45 ec 0a          	addl   $0xa,-0x14(%rbp)
    4b98:	e9 e9 00 00 00       	jmp    4c86 <main+0x29a>
    4b9d:	81 7d fc 05 01 00 00 	cmpl   $0x105,-0x4(%rbp)
    4ba4:	0f 84 b7 00 00 00    	je     4c61 <main+0x275>
    4baa:	81 7d fc 05 01 00 00 	cmpl   $0x105,-0x4(%rbp)
    4bb1:	0f 8f cf 00 00 00    	jg     4c86 <main+0x29a>
    4bb7:	81 7d fc 04 01 00 00 	cmpl   $0x104,-0x4(%rbp)
    4bbe:	0f 84 8e 00 00 00    	je     4c52 <main+0x266>
    4bc4:	81 7d fc 04 01 00 00 	cmpl   $0x104,-0x4(%rbp)
    4bcb:	0f 8f b5 00 00 00    	jg     4c86 <main+0x29a>
    4bd1:	81 7d fc 03 01 00 00 	cmpl   $0x103,-0x4(%rbp)
    4bd8:	74 5a                	je     4c34 <main+0x248>
    4bda:	81 7d fc 03 01 00 00 	cmpl   $0x103,-0x4(%rbp)
    4be1:	0f 8f 9f 00 00 00    	jg     4c86 <main+0x29a>
    4be7:	83 7d fc 77          	cmpl   $0x77,-0x4(%rbp)
    4beb:	7f 3c                	jg     4c29 <main+0x23d>
    4bed:	83 7d fc 41          	cmpl   $0x41,-0x4(%rbp)
    4bf1:	0f 8c 8f 00 00 00    	jl     4c86 <main+0x29a>
    4bf7:	8b 45 fc             	mov    -0x4(%rbp),%eax
    4bfa:	83 e8 41             	sub    $0x41,%eax
    4bfd:	83 f8 36             	cmp    $0x36,%eax
    4c00:	0f 87 80 00 00 00    	ja     4c86 <main+0x29a>
    4c06:	89 c0                	mov    %eax,%eax
    4c08:	48 8d 14 85 00 00 00 	lea    0x0(,%rax,4),%rdx
    4c0f:	00 
    4c10:	48 8d 05 79 0b 00 00 	lea    0xb79(%rip),%rax        # 5790 <game_height+0x640>
    4c17:	8b 04 02             	mov    (%rdx,%rax,1),%eax
    4c1a:	48 98                	cltq   
    4c1c:	48 8d 15 6d 0b 00 00 	lea    0xb6d(%rip),%rdx        # 5790 <game_height+0x640>
    4c23:	48 01 d0             	add    %rdx,%rax
    4c26:	3e ff e0             	notrack jmp *%rax
    4c29:	81 7d fc 02 01 00 00 	cmpl   $0x102,-0x4(%rbp)
    4c30:	74 11                	je     4c43 <main+0x257>
    4c32:	eb 52                	jmp    4c86 <main+0x29a>
    4c34:	83 7d e4 01          	cmpl   $0x1,-0x1c(%rbp)
    4c38:	74 42                	je     4c7c <main+0x290>
    4c3a:	c7 45 e8 00 00 00 00 	movl   $0x0,-0x18(%rbp)
    4c41:	eb 39                	jmp    4c7c <main+0x290>
    4c43:	83 7d e4 00          	cmpl   $0x0,-0x1c(%rbp)
    4c47:	74 36                	je     4c7f <main+0x293>
    4c49:	c7 45 e8 01 00 00 00 	movl   $0x1,-0x18(%rbp)
    4c50:	eb 2d                	jmp    4c7f <main+0x293>
    4c52:	83 7d e4 03          	cmpl   $0x3,-0x1c(%rbp)
    4c56:	74 2a                	je     4c82 <main+0x296>
    4c58:	c7 45 e8 02 00 00 00 	movl   $0x2,-0x18(%rbp)
    4c5f:	eb 21                	jmp    4c82 <main+0x296>
    4c61:	83 7d e4 02          	cmpl   $0x2,-0x1c(%rbp)
    4c65:	74 1e                	je     4c85 <main+0x299>
    4c67:	c7 45 e8 03 00 00 00 	movl   $0x3,-0x18(%rbp)
    4c6e:	eb 15                	jmp    4c85 <main+0x299>
    4c70:	c7 05 9e 72 00 00 01 	movl   $0x1,0x729e(%rip)        # bf18 <game_over>
    4c77:	00 00 00 
    4c7a:	eb 0a                	jmp    4c86 <main+0x29a>
    4c7c:	90                   	nop
    4c7d:	eb 07                	jmp    4c86 <main+0x29a>
    4c7f:	90                   	nop
    4c80:	eb 04                	jmp    4c86 <main+0x29a>
    4c82:	90                   	nop
    4c83:	eb 01                	jmp    4c86 <main+0x29a>
    4c85:	90                   	nop
    4c86:	48 8b 05 13 24 00 00 	mov    0x2413(%rip),%rax        # 70a0 <stdscr@NCURSES6_TINFO_5.0.19991023>
    4c8d:	48 89 c7             	mov    %rax,%rdi
    4c90:	e8 3b d8 ff ff       	call   24d0 <_init+0x4d0>
    4c95:	89 45 fc             	mov    %eax,-0x4(%rbp)
    4c98:	83 7d fc ff          	cmpl   $0xffffffff,-0x4(%rbp)
    4c9c:	0f 85 fb fe ff ff    	jne    4b9d <main+0x1b1>
    4ca2:	83 7d ec 59          	cmpl   $0x59,-0x14(%rbp)
    4ca6:	7e 37                	jle    4cdf <main+0x2f3>
    4ca8:	8b 45 e8             	mov    -0x18(%rbp),%eax
    4cab:	89 05 d3 23 00 00    	mov    %eax,0x23d3(%rip)        # 7084 <direction>
    4cb1:	8b 05 cd 23 00 00    	mov    0x23cd(%rip),%eax        # 7084 <direction>
    4cb7:	89 45 e4             	mov    %eax,-0x1c(%rbp)
    4cba:	b8 00 00 00 00       	mov    $0x0,%eax
    4cbf:	e8 07 f2 ff ff       	call   3ecb <update_game>
    4cc4:	8b 05 4e 72 00 00    	mov    0x724e(%rip),%eax        # bf18 <game_over>
    4cca:	85 c0                	test   %eax,%eax
    4ccc:	75 0a                	jne    4cd8 <main+0x2ec>
    4cce:	b8 00 00 00 00       	mov    $0x0,%eax
    4cd3:	e8 b0 e7 ff ff       	call   3488 <draw_game>
    4cd8:	c7 45 ec 00 00 00 00 	movl   $0x0,-0x14(%rbp)
    4cdf:	8b 05 33 72 00 00    	mov    0x7233(%rip),%eax        # bf18 <game_over>
    4ce5:	85 c0                	test   %eax,%eax
    4ce7:	0f 84 9d fe ff ff    	je     4b8a <main+0x19e>
    4ced:	48 8b 05 ac 23 00 00 	mov    0x23ac(%rip),%rax        # 70a0 <stdscr@NCURSES6_TINFO_5.0.19991023>
    4cf4:	be 00 00 00 00       	mov    $0x0,%esi
    4cf9:	48 89 c7             	mov    %rax,%rdi
    4cfc:	e8 2f d6 ff ff       	call   2330 <_init+0x330>
    4d01:	48 8b 05 98 23 00 00 	mov    0x2398(%rip),%rax        # 70a0 <stdscr@NCURSES6_TINFO_5.0.19991023>
    4d08:	48 89 c7             	mov    %rax,%rdi
    4d0b:	e8 80 d7 ff ff       	call   2490 <_init+0x490>
    4d10:	48 8b 05 89 23 00 00 	mov    0x2389(%rip),%rax        # 70a0 <stdscr@NCURSES6_TINFO_5.0.19991023>
    4d17:	48 89 c7             	mov    %rax,%rdi
    4d1a:	e8 91 d8 ff ff       	call   25b0 <_init+0x5b0>
    4d1f:	89 45 f4             	mov    %eax,-0xc(%rbp)
    4d22:	48 8b 05 77 23 00 00 	mov    0x2377(%rip),%rax        # 70a0 <stdscr@NCURSES6_TINFO_5.0.19991023>
    4d29:	48 89 c7             	mov    %rax,%rdi
    4d2c:	e8 cf d6 ff ff       	call   2400 <_init+0x400>
    4d31:	89 45 f8             	mov    %eax,-0x8(%rbp)
    4d34:	48 8b 05 65 23 00 00 	mov    0x2365(%rip),%rax        # 70a0 <stdscr@NCURSES6_TINFO_5.0.19991023>
    4d3b:	ba 00 00 00 00       	mov    $0x0,%edx
    4d40:	be 00 02 20 00       	mov    $0x200200,%esi
    4d45:	48 89 c7             	mov    %rax,%rdi
    4d48:	e8 23 d7 ff ff       	call   2470 <_init+0x470>
    4d4d:	8b 45 f8             	mov    -0x8(%rbp),%eax
    4d50:	89 c2                	mov    %eax,%edx
    4d52:	c1 ea 1f             	shr    $0x1f,%edx
    4d55:	01 d0                	add    %edx,%eax
    4d57:	d1 f8                	sar    %eax
    4d59:	8d 48 f3             	lea    -0xd(%rax),%ecx
    4d5c:	8b 45 f4             	mov    -0xc(%rbp),%eax
    4d5f:	89 c2                	mov    %eax,%edx
    4d61:	c1 ea 1f             	shr    $0x1f,%edx
    4d64:	01 d0                	add    %edx,%eax
    4d66:	d1 f8                	sar    %eax
    4d68:	83 e8 02             	sub    $0x2,%eax
    4d6b:	48 8d 15 d0 09 00 00 	lea    0x9d0(%rip),%rdx        # 5742 <game_height+0x5f2>
    4d72:	89 ce                	mov    %ecx,%esi
    4d74:	89 c7                	mov    %eax,%edi
    4d76:	b8 00 00 00 00       	mov    $0x0,%eax
    4d7b:	e8 10 d6 ff ff       	call   2390 <_init+0x390>
    4d80:	48 8b 05 19 23 00 00 	mov    0x2319(%rip),%rax        # 70a0 <stdscr@NCURSES6_TINFO_5.0.19991023>
    4d87:	ba 00 00 00 00       	mov    $0x0,%edx
    4d8c:	be 00 02 20 00       	mov    $0x200200,%esi
    4d91:	48 89 c7             	mov    %rax,%rdi
    4d94:	e8 37 d8 ff ff       	call   25d0 <_init+0x5d0>
    4d99:	8b 15 21 23 00 00    	mov    0x2321(%rip),%edx        # 70c0 <player_score>
    4d9f:	8b 45 f8             	mov    -0x8(%rbp),%eax
    4da2:	89 c1                	mov    %eax,%ecx
    4da4:	c1 e9 1f             	shr    $0x1f,%ecx
    4da7:	01 c8                	add    %ecx,%eax
    4da9:	d1 f8                	sar    %eax
    4dab:	8d 70 f4             	lea    -0xc(%rax),%esi
    4dae:	8b 45 f4             	mov    -0xc(%rbp),%eax
    4db1:	89 c1                	mov    %eax,%ecx
    4db3:	c1 e9 1f             	shr    $0x1f,%ecx
    4db6:	01 c8                	add    %ecx,%eax
    4db8:	d1 f8                	sar    %eax
    4dba:	89 c7                	mov    %eax,%edi
    4dbc:	89 d1                	mov    %edx,%ecx
    4dbe:	48 8d 05 98 09 00 00 	lea    0x998(%rip),%rax        # 575d <game_height+0x60d>
    4dc5:	48 89 c2             	mov    %rax,%rdx
    4dc8:	b8 00 00 00 00       	mov    $0x0,%eax
    4dcd:	e8 be d5 ff ff       	call   2390 <_init+0x390>
    4dd2:	8b 45 f8             	mov    -0x8(%rbp),%eax
    4dd5:	89 c2                	mov    %eax,%edx
    4dd7:	c1 ea 1f             	shr    $0x1f,%edx
    4dda:	01 d0                	add    %edx,%eax
    4ddc:	d1 f8                	sar    %eax
    4dde:	8d 48 f1             	lea    -0xf(%rax),%ecx
    4de1:	8b 45 f4             	mov    -0xc(%rbp),%eax
    4de4:	89 c2                	mov    %eax,%edx
    4de6:	c1 ea 1f             	shr    $0x1f,%edx
    4de9:	01 d0                	add    %edx,%eax
    4deb:	d1 f8                	sar    %eax
    4ded:	83 c0 02             	add    $0x2,%eax
    4df0:	48 8d 15 79 09 00 00 	lea    0x979(%rip),%rdx        # 5770 <game_height+0x620>
    4df7:	89 ce                	mov    %ecx,%esi
    4df9:	89 c7                	mov    %eax,%edi
    4dfb:	b8 00 00 00 00       	mov    $0x0,%eax
    4e00:	e8 8b d5 ff ff       	call   2390 <_init+0x390>
    4e05:	48 8b 05 94 22 00 00 	mov    0x2294(%rip),%rax        # 70a0 <stdscr@NCURSES6_TINFO_5.0.19991023>
    4e0c:	48 89 c7             	mov    %rax,%rdi
    4e0f:	e8 6c d6 ff ff       	call   2480 <_init+0x480>
    4e14:	48 8b 05 85 22 00 00 	mov    0x2285(%rip),%rax        # 70a0 <stdscr@NCURSES6_TINFO_5.0.19991023>
    4e1b:	48 89 c7             	mov    %rax,%rdi
    4e1e:	e8 ad d6 ff ff       	call   24d0 <_init+0x4d0>
    4e23:	e9 e7 fc ff ff       	jmp    4b0f <main+0x123>
    4e28:	90                   	nop
    4e29:	e8 c2 d6 ff ff       	call   24f0 <_init+0x4f0>
    4e2e:	b8 00 00 00 00       	mov    $0x0,%eax
    4e33:	c9                   	leave  
    4e34:	c3                   	ret    

Disassembly of section .fini:

0000000000004e38 <_fini>:
    4e38:	f3 0f 1e fa          	endbr64 
    4e3c:	48 83 ec 08          	sub    $0x8,%rsp
    4e40:	48 83 c4 08          	add    $0x8,%rsp
    4e44:	c3                   	ret    
